Microchip MPLAB XC8 Compiler V2.41

Linker command line:

\
  --edf=C:/Users/akihi/.mchp_packs/Microchip/PIC18F-Q_DFP/1.21.411/xc8\pic\dat\20230817203607_en.msgs \
  -pivt0x8=08h -cn -h+dist/default/production\z8s57q.X.production.sym \
  --cmf=dist/default/production\z8s57q.X.production.cmf -z -Q18F57Q43 \
  -oC:\Users\akihi\AppData\Local\Temp\xcAsdu0.\driver_tmp_3.o \
  --defsym=__MPLAB_BUILD=1 --fixupoverflow=error \
  -Mdist/default/production/z8s57q.X.production.map \
  --md=C:\Users\akihi\AppData\Local\Temp\xcAsdu0.\driver_tmp_0.dat -E1 \
  -ver=XC8 Compiler --acfsm=1493 -ACODE=00h-01FFFFh -ACONST=00h-01FFFFh \
  -ASMALLCONST=02600h-026FFhx474 \
  -AMEDIUMCONST=02600h-0FFFFh,012600h-01FFFFh -ACOMRAM=0501h-055Fh \
  -AABS1=0500h-024FFh -ABIGRAM=0501h-024FFh \
  -ARAM=0560h-05FFh,0600h-06FFhx31 -ABANK5=0560h-05FFh -ABANK6=0600h-06FFh \
  -ABANK7=0700h-07FFh -ABANK8=0800h-08FFh -ABANK9=0900h-09FFh \
  -ABANK10=0A00h-0AFFh -ABANK11=0B00h-0BFFh -ABANK12=0C00h-0CFFh \
  -ABANK13=0D00h-0DFFh -ABANK14=0E00h-0EFFh -ABANK15=0F00h-0FFFh \
  -ABANK16=01000h-010FFh -ABANK17=01100h-011FFh -ABANK18=01200h-012FFh \
  -ABANK19=01300h-013FFh -ABANK20=01400h-014FFh -ABANK21=01500h-015FFh \
  -ABANK22=01600h-016FFh -ABANK23=01700h-017FFh -ABANK24=01800h-018FFh \
  -ABANK25=01900h-019FFh -ABANK26=01A00h-01AFFh -ABANK27=01B00h-01BFFh \
  -ABANK28=01C00h-01CFFh -ABANK29=01D00h-01DFFh -ABANK30=01E00h-01EFFh \
  -ABANK31=01F00h-01FFFh -ABANK32=02000h-020FFh -ABANK33=02100h-021FFh \
  -ABANK34=02200h-022FFh -ABANK35=02300h-023FFh -ABANK36=02400h-024FFh \
  -ASFR=00h-0FFhx4,0400h-045Fh,0460h-04FFh,02500h-025FFh \
  -ABIGSFR=00h-04FFh,02500h-025FFh -ACONFIG=0300000h-0300011h \
  -AIDLOC=0200000h-020003Fh -AEEDATA=0380000h-03803FFh -peeprom_data=EEDATA \
  -preset_vec=00h -ppowerup=CODE,init -pramtop=02600h \
  -psmallconst=SMALLCONST -pmediumconst=MEDIUMCONST -pconst=CONST \
  -AFARRAM=00h-00h \
  -prdata=COMRAM,nvrram=COMRAM,nvbit=COMRAM,rbss=COMRAM,rbit=COMRAM \
  -pfarbss=FARRAM,fardata=FARRAM,nvFARRAM=FARRAM \
  -pintsave_regs=BIGRAM,bigbss=BIGRAM,bigdata=BIGRAM -pbss=RAM \
  -pidata=CODE,irdata=CODE,ibigdata=CODE,ifardata=CODE -prparam=COMRAM \
  C:\Users\akihi\AppData\Local\Temp\xcAsdu0.\driver_tmp_14.o \
  dist/default/production\z8s57q.X.production.o 

Object code version is 3.11

Machine type is 18F57Q43



                Name                               Link     Load   Length Selector   Space Scale
C:\Users\akihi\AppData\Local\Temp\xcAsdu0.\driver_tmp_14.o
                config                           300000   300000        A        0       4
                init                                102      102        4        4       0
                reset_vec                             0        0        4        0       0
dist/default/production\z8s57q.X.production.o
                config                           300000   300000        A        0       4
                mediumconst                        DF6C     DF6C     2094     6FB6       0
                ivt0x8                                8        8       FA        4       0
                text224                            2072     2072       64        4       0
                text223                            1E7C     1E7C       66        4       0
                text222                            200E     200E       64        4       0
                text221                            2398     2398       52      8E6       0
                text220                            1CDC     1CDC       6A        4       0
                text219                            11D2     11D2       94        4       0
                text218                            224C     224C       54        4       0
                text217                            270C     270C       42     12B7       0
                text216                            2194     2194       5E        4       0
                text215                            2D1E     2D1E       18     12B7       0
                text214                            2BF0     2BF0       22     12B7       0
                text213                            2AA0     2AA0       2A     12B7       0
                text212                            15A0     15A0       84        4       0
                text211                            2BCE     2BCE       22     12B7       0
                text210                           19244    19244      328     8000       0
                text209                            2BAC     2BAC       22     12B7       0
                text208                            25FA     25FA       46     12B7       0
                text207                             D46      D46       B6        4       0
                text206                             A4C      A4C       C4        4       0
                text205                            29E8     29E8       32     12B7       0
                text204                            2CBC     2CBC       1A     12B7       0
                text203                             982      982       CA        4       0
                text202                             578      578       D6        4       0
                text201                           1F502    1F502      10C     8000       0
                text200                           1FEE8    1FEE8       EC     8000       0
                text199                            274E     274E       40     12B7       0
                text198                            26C8     26C8       44     12B7       0
                text197                            248A     248A       50      8E6       0
                text196                             B10      B10       C2        4       0
                text195                           1B04C    1B04C      234     8000       0
                text194                           1D394    1D394      19C     8000       0
                text193                            2B40     2B40       26     12B7       0
                text192                             71C      71C       CE        4       0
                text191                           1D530    1D530      19A     8000       0
                text190                           1F070    1F070      12C     8000       0
                text189                             FFE      FFE       A4        4       0
                text188                            1494     1494       88        4       0
                text187                           1EB46    1EB46      15E     8000       0
                text186                            28E6     28E6       38     12B7       0
                text185                            2A74     2A74       2C     12B7       0
                text184                            2A48     2A48       2C     12B7       0
                text183                            28AE     28AE       38     12B7       0
                text182                           19DAA    19DAA      27A     8000       0
                text181                           10FAA    10FAA      C68     8000       0
                text180                            1DAE     1DAE       68        4       0
                text179                            2AF2     2AF2       28     12B7       0
                text178                           1E2BA    1E2BA      174     8000       0
                text177                           18EBE    18EBE      386     8000       0
                text176                           1E9E2    1E9E2      164     8000       0
                text175                           19858    19858      2C2     8000       0
                text174                            1926     1926       7E        4       0
                text173                             C8E      C8E       B8        4       0
                text172                            2876     2876       38     12B7       0
                text171                             64E      64E       CE        4       0
                text170                           1E59E    1E59E      170     8000       0
                text169                           17F42    17F42      432     8000       0
                text168                           1E42E    1E42E      170     8000       0
                text167                           1CEB6    1CEB6      1A2     8000       0
                text166                             8B6      8B6       CC        4       0
                text165                           1956C    1956C      2EC     8000       0
                text164                           1B8C0    1B8C0      20C     8000       0
                text163                           1D1F6    1D1F6      19E     8000       0
                text162                           11C12    11C12      AD4     8000       0
                text161                           1FC0C    1FC0C       FA     8000       0
                text160                            2344     2344       52        4       0
                text159                            2E2C     2E2C        A     12B7       0
                text158                            2DC0     2DC0       12     12B7       0
                text157                            2ACA     2ACA       28     12B7       0
                text156                            24DA     24DA       4C      8E6       0
                text155                             DFC      DFC       B4        4       0
                text154                           1E144    1E144      176     8000       0
                text153                            1C70     1C70       6C        4       0
                text152                           1B6B2    1B6B2      20E     8000       0
                text151                           1F60E    1F60E      104     8000       0
                text150                           1B49C    1B49C      216     8000       0
                text149                             7EA      7EA       CC        4       0
                text148                           17AE4    17AE4      45E     8000       0
                text147                           153CE    153CE      5CA     8000       0
                text146                           15998    15998      5B2     8000       0
                text145                            243A     243A       50      8E6       0
                text144                           126E6    126E6      890     8000       0
                text143                            2E52     2E52        6     12B7       0
                text142                            113E     113E       94        4       0
                text141                            27CC     27CC       3A     12B7       0
                text140                            2E66     2E66        2     12B7       0
                text139                            2A1A     2A1A       2E     12B7       0
                text138                            2E3E     2E3E        8     12B7       0
                text137                            12F4     12F4       8C        4       0
                text136                            1828     1828       80        4       0
                text135                            25B4     25B4       46     12B7       0
                text134                            16A6     16A6       82        4       0
                text133                           1F814    1F814      102     8000       0
                text132                            1FAA     1FAA       64        4       0
                text131                            140A     140A       8A        4       0
                text130                           17682    17682      462     8000       0
                text129                            2DAE     2DAE       12     12B7       0
                text128                            2E4C     2E4C        6     12B7       0
                text127                            2C50     2C50       1E     12B7       0
                text126                            2D9C     2D9C       12     12B7       0
                text125                            2E16     2E16        C     12B7       0
                text124                            291E     291E       34     12B7       0
                text123                            283E     283E       38     12B7       0
                text122                            2B1A     2B1A       26     12B7       0
                text121                            2E60     2E60        4     12B7       0
                text120                            2D06     2D06       18     12B7       0
                text119                            2B66     2B66       24     12B7       0
                text118                            2E5C     2E5C        4     12B7       0
                text117                            2E58     2E58        4     12B7       0
                text116                            2CEE     2CEE       18     12B7       0
                text115                            2CD6     2CD6       18     12B7       0
                text114                            2D62     2D62       16     12B7       0
                text113                            2E36     2E36        8     12B7       0
                text112                            2D4C     2D4C       16     12B7       0
                text111                            2CA2     2CA2       1A     12B7       0
                text110                            2E22     2E22        A     12B7       0
                text109                            1F46     1F46       64        4       0
                text108                            1EE2     1EE2       64        4       0
                text107                           17212    17212      470     8000       0
                text106                            1266     1266       8E        4       0
                text105                            17A8     17A8       80        4       0
                text104                            2136     2136       5E        4       0
                text103                             F5A      F5A       A4        4       0
                text102                            29B6     29B6       32     12B7       0
                text101                           1ABD4    1ABD4      242     8000       0
                text100                           1EF42    1EF42      12E     8000       0
                text99                             2E46     2E46        6     12B7       0
                text98                             1B8A     1B8A       78        4       0
                text97                             2684     2684       44     12B7       0
                text96                             23EA     23EA       50      8E6       0
                text95                            19B1A    19B1A      290     8000       0
                text94                            1CD12    1CD12      1A4     8000       0
                text93                            1A28C    1A28C      262     8000       0
                text92                            1A4EE    1A4EE      256     8000       0
                text91                             2DF0     2DF0        E     12B7       0
                text90                             1E16     1E16       66        4       0
                text89                              EB0      EB0       AA        4       0
                text88                             2E64     2E64        2     12B7       0
                text87                             2C12     2C12       20     12B7       0
                text86                             2D8A     2D8A       12     12B7       0
                text85                            1D6CA    1D6CA      18C     8000       0
                text84                             2D36     2D36       16     12B7       0
                text83                             1380     1380       8A        4       0
                text82                              1EC      1EC       E6        4       0
                text81                             1D46     1D46       68        4       0
                text80                            1F712    1F712      102     8000       0
                text79                            1DCD6    1DCD6      17E     8000       0
                text78                            1C0B4    1C0B4      1EA     8000       0
                text77                            1DB58    1DB58      17E     8000       0
                text76                            1BECA    1BECA      1EA     8000       0
                text75                            1C482    1C482      1CE     8000       0
                text74                             20D6     20D6       60        4       0
                text73                            1FFD4    1FFD4       2C     8000       0
                text72                             256E     256E       46     12B7       0
                text71                            1690E    1690E      494     8000       0
                text70                             2984     2984       32     12B7       0
                text69                            1C29E    1C29E      1E4     8000       0
                text68                            12F76    12F76      816     8000       0
                text67                            14692    14692      728     8000       0
                text66                            1C80E    1C80E      1BC     8000       0
                text65                            1D058    1D058      19E     8000       0
                text64                            1F3E6    1F3E6      11C     8000       0
                text63                             2C88     2C88       1A     12B7       0
                text62                             2C6E     2C6E       1A     12B7       0
                text61                            1F916    1F916      100     8000       0
                text60                             18A8     18A8       7E        4       0
                text59                            1FD06    1FD06       F6     8000       0
                text58                            1E70E    1E70E      16C     8000       0
                text57                            1DFCE    1DFCE      176     8000       0
                text56                             1A20     1A20       7A        4       0
                text55                             2E0A     2E0A        C     12B7       0
                text54                            1A744    1A744      24E     8000       0
                text53                            16DA2    16DA2      470     8000       0
                text52                            1A992    1A992      242     8000       0
                text51                             2DE2     2DE2        E     12B7       0
                text50                            1C650    1C650      1BE     8000       0
                text49                            13F18    13F18      77A     8000       0
                text48                             1B12     1B12       78        4       0
                text47                            1A024    1A024      268     8000       0
                text46                            1CB6E    1CB6E      1A4     8000       0
                text45                             278E     278E       3E     12B7       0
                text44                            1DE54    1DE54      17A     8000       0
                text43                             22F2     22F2       52        4       0
                text42                            1F2C6    1F2C6      120     8000       0
                text41                            14DBA    14DBA      614     8000       0
                text40                            1E87A    1E87A      168     8000       0
                text39                            1FA16    1FA16       FC     8000       0
                text38                             151C     151C       84        4       0
                text37                            10000    10000      FAA     8000       0
                text36                             2DFE     2DFE        C     12B7       0
                text35                            1BACC    1BACC      206     8000       0
                text34                             2806     2806       38     12B7       0
                text33                            1ECA4    1ECA4      150     8000       0
                text32                            18374    18374      42A     8000       0
                text31                            18B34    18B34      38A     8000       0
                text30                            1EDF4    1EDF4      14E     8000       0
                text29                              3B6      3B6       E2        4       0
                text28                             10A2     10A2       9C        4       0
                text27                              498      498       E0        4       0
                text26                             21F2     21F2       5A        4       0
                text25                            1879E    1879E      396     8000       0
                text24                            1D856    1D856      184     8000       0
                text23                             1728     1728       80        4       0
                text22                            1B280    1B280      21C     8000       0
                text21                            1AE16    1AE16      236     8000       0
                text20                            1378C    1378C      78C     8000       0
                text19                            1D9DA    1D9DA      17E     8000       0
                text18                            1C9CA    1C9CA      1A4     8000       0
                text17                            1BCD2    1BCD2      1F8     8000       0
                text16                              106      106       E6        4       0
                text15                             1A9A     1A9A       78        4       0
                text14                             2640     2640       44     12B7       0
                text13                            15F4A    15F4A      508     8000       0
                text12                             2DD2     2DD2       10     12B7       0
                text11                             2C32     2C32       1E     12B7       0
                text10                            1FB12    1FB12       FA     8000       0
                text9                              1624     1624       82        4       0
                text8                              19A4     19A4       7C        4       0
                text7                              2952     2952       32     12B7       0
                text6                             1F19C    1F19C      12A     8000       0
                text5                             16452    16452      4BC     8000       0
                text4                              22A0     22A0       52        4       0
                text3                             1FDFC    1FDFC       EC     8000       0
                text2                              1C02     1C02       6E        4       0
                text1                              2B8A     2B8A       22     12B7       0
                text0                               2D2      2D2       E4        4       0
                cstackCOMRAM                        501      501       51      501       1
                cstackBANK5                         560      560       A0      560       1
                cstackBANK6                         600      600       FF      600       1
                cstackBANK7                         7EC      7EC       12      700       1
                bssBIGRAM                           C00      C00     10FC      C00       1
                bssBANK11                           B00      B00      100      B00       1
                bssBANK10                           A00      A00       B0      A00       1
                bssBANK9                            900      900       D0      900       1
                dataBANK8                           85E      85E       47      800       1
                bssBANK8                            800      800       5E      800       1
                dataBANK7                           7DA      7DA       12      700       1
                bssBANK7                            700      700       A1      700       1
                bssBANK6                            6FF      6FF        1      600       1
                bssCOMRAM                           552      552        7      501       1
                cinit                               BD2      BD2       BC        4       0
                nvBANK8                             8A5      8A5       15      800       1
                nvBANK7                             7A1      7A1       39      700       1
                idataBANK8                         2526     2526       47      8E6       0
                idataBANK7                         2D78     2D78       12     12B7       0

TOTAL           Name                               Link     Load   Length     Space
        CLASS   CODE           
                init                                102      102        4         0
                reset_vec                             0        0        4         0
                ivt0x8                                8        8       FA         0
                text224                            2072     2072       64         0
                text223                            1E7C     1E7C       66         0
                text222                            200E     200E       64         0
                text221                            2398     2398       52         0
                text220                            1CDC     1CDC       6A         0
                text219                            11D2     11D2       94         0
                text218                            224C     224C       54         0
                text217                            270C     270C       42         0
                text216                            2194     2194       5E         0
                text215                            2D1E     2D1E       18         0
                text214                            2BF0     2BF0       22         0
                text213                            2AA0     2AA0       2A         0
                text212                            15A0     15A0       84         0
                text211                            2BCE     2BCE       22         0
                text210                           19244    19244      328         0
                text209                            2BAC     2BAC       22         0
                text208                            25FA     25FA       46         0
                text207                             D46      D46       B6         0
                text206                             A4C      A4C       C4         0
                text205                            29E8     29E8       32         0
                text204                            2CBC     2CBC       1A         0
                text203                             982      982       CA         0
                text202                             578      578       D6         0
                text201                           1F502    1F502      10C         0
                text200                           1FEE8    1FEE8       EC         0
                text199                            274E     274E       40         0
                text198                            26C8     26C8       44         0
                text197                            248A     248A       50         0
                text196                             B10      B10       C2         0
                text195                           1B04C    1B04C      234         0
                text194                           1D394    1D394      19C         0
                text193                            2B40     2B40       26         0
                text192                             71C      71C       CE         0
                text191                           1D530    1D530      19A         0
                text190                           1F070    1F070      12C         0
                text189                             FFE      FFE       A4         0
                text188                            1494     1494       88         0
                text187                           1EB46    1EB46      15E         0
                text186                            28E6     28E6       38         0
                text185                            2A74     2A74       2C         0
                text184                            2A48     2A48       2C         0
                text183                            28AE     28AE       38         0
                text182                           19DAA    19DAA      27A         0
                text181                           10FAA    10FAA      C68         0
                text180                            1DAE     1DAE       68         0
                text179                            2AF2     2AF2       28         0
                text178                           1E2BA    1E2BA      174         0
                text177                           18EBE    18EBE      386         0
                text176                           1E9E2    1E9E2      164         0
                text175                           19858    19858      2C2         0
                text174                            1926     1926       7E         0
                text173                             C8E      C8E       B8         0
                text172                            2876     2876       38         0
                text171                             64E      64E       CE         0
                text170                           1E59E    1E59E      170         0
                text169                           17F42    17F42      432         0
                text168                           1E42E    1E42E      170         0
                text167                           1CEB6    1CEB6      1A2         0
                text166                             8B6      8B6       CC         0
                text165                           1956C    1956C      2EC         0
                text164                           1B8C0    1B8C0      20C         0
                text163                           1D1F6    1D1F6      19E         0
                text162                           11C12    11C12      AD4         0
                text161                           1FC0C    1FC0C       FA         0
                text160                            2344     2344       52         0
                text159                            2E2C     2E2C        A         0
                text158                            2DC0     2DC0       12         0
                text157                            2ACA     2ACA       28         0
                text156                            24DA     24DA       4C         0
                text155                             DFC      DFC       B4         0
                text154                           1E144    1E144      176         0
                text153                            1C70     1C70       6C         0
                text152                           1B6B2    1B6B2      20E         0
                text151                           1F60E    1F60E      104         0
                text150                           1B49C    1B49C      216         0
                text149                             7EA      7EA       CC         0
                text148                           17AE4    17AE4      45E         0
                text147                           153CE    153CE      5CA         0
                text146                           15998    15998      5B2         0
                text145                            243A     243A       50         0
                text144                           126E6    126E6      890         0
                text143                            2E52     2E52        6         0
                text142                            113E     113E       94         0
                text141                            27CC     27CC       3A         0
                text140                            2E66     2E66        2         0
                text139                            2A1A     2A1A       2E         0
                text138                            2E3E     2E3E        8         0
                text137                            12F4     12F4       8C         0
                text136                            1828     1828       80         0
                text135                            25B4     25B4       46         0
                text134                            16A6     16A6       82         0
                text133                           1F814    1F814      102         0
                text132                            1FAA     1FAA       64         0
                text131                            140A     140A       8A         0
                text130                           17682    17682      462         0
                text129                            2DAE     2DAE       12         0
                text128                            2E4C     2E4C        6         0
                text127                            2C50     2C50       1E         0
                text126                            2D9C     2D9C       12         0
                text125                            2E16     2E16        C         0
                text124                            291E     291E       34         0
                text123                            283E     283E       38         0
                text122                            2B1A     2B1A       26         0
                text121                            2E60     2E60        4         0
                text120                            2D06     2D06       18         0
                text119                            2B66     2B66       24         0
                text118                            2E5C     2E5C        4         0
                text117                            2E58     2E58        4         0
                text116                            2CEE     2CEE       18         0
                text115                            2CD6     2CD6       18         0
                text114                            2D62     2D62       16         0
                text113                            2E36     2E36        8         0
                text112                            2D4C     2D4C       16         0
                text111                            2CA2     2CA2       1A         0
                text110                            2E22     2E22        A         0
                text109                            1F46     1F46       64         0
                text108                            1EE2     1EE2       64         0
                text107                           17212    17212      470         0
                text106                            1266     1266       8E         0
                text105                            17A8     17A8       80         0
                text104                            2136     2136       5E         0
                text103                             F5A      F5A       A4         0
                text102                            29B6     29B6       32         0
                text101                           1ABD4    1ABD4      242         0
                text100                           1EF42    1EF42      12E         0
                text99                             2E46     2E46        6         0
                text98                             1B8A     1B8A       78         0
                text97                             2684     2684       44         0
                text96                             23EA     23EA       50         0
                text95                            19B1A    19B1A      290         0
                text94                            1CD12    1CD12      1A4         0
                text93                            1A28C    1A28C      262         0
                text92                            1A4EE    1A4EE      256         0
                text91                             2DF0     2DF0        E         0
                text90                             1E16     1E16       66         0
                text89                              EB0      EB0       AA         0
                text88                             2E64     2E64        2         0
                text87                             2C12     2C12       20         0
                text86                             2D8A     2D8A       12         0
                text85                            1D6CA    1D6CA      18C         0
                text84                             2D36     2D36       16         0
                text83                             1380     1380       8A         0
                text82                              1EC      1EC       E6         0
                text81                             1D46     1D46       68         0
                text80                            1F712    1F712      102         0
                text79                            1DCD6    1DCD6      17E         0
                text78                            1C0B4    1C0B4      1EA         0
                text77                            1DB58    1DB58      17E         0
                text76                            1BECA    1BECA      1EA         0
                text75                            1C482    1C482      1CE         0
                text74                             20D6     20D6       60         0
                text73                            1FFD4    1FFD4       2C         0
                text72                             256E     256E       46         0
                text71                            1690E    1690E      494         0
                text70                             2984     2984       32         0
                text69                            1C29E    1C29E      1E4         0
                text68                            12F76    12F76      816         0
                text67                            14692    14692      728         0
                text66                            1C80E    1C80E      1BC         0
                text65                            1D058    1D058      19E         0
                text64                            1F3E6    1F3E6      11C         0
                text63                             2C88     2C88       1A         0
                text62                             2C6E     2C6E       1A         0
                text61                            1F916    1F916      100         0
                text60                             18A8     18A8       7E         0
                text59                            1FD06    1FD06       F6         0
                text58                            1E70E    1E70E      16C         0
                text57                            1DFCE    1DFCE      176         0
                text56                             1A20     1A20       7A         0
                text55                             2E0A     2E0A        C         0
                text54                            1A744    1A744      24E         0
                text53                            16DA2    16DA2      470         0
                text52                            1A992    1A992      242         0
                text51                             2DE2     2DE2        E         0
                text50                            1C650    1C650      1BE         0
                text49                            13F18    13F18      77A         0
                text48                             1B12     1B12       78         0
                text47                            1A024    1A024      268         0
                text46                            1CB6E    1CB6E      1A4         0
                text45                             278E     278E       3E         0
                text44                            1DE54    1DE54      17A         0
                text43                             22F2     22F2       52         0
                text42                            1F2C6    1F2C6      120         0
                text41                            14DBA    14DBA      614         0
                text40                            1E87A    1E87A      168         0
                text39                            1FA16    1FA16       FC         0
                text38                             151C     151C       84         0
                text37                            10000    10000      FAA         0
                text36                             2DFE     2DFE        C         0
                text35                            1BACC    1BACC      206         0
                text34                             2806     2806       38         0
                text33                            1ECA4    1ECA4      150         0
                text32                            18374    18374      42A         0
                text31                            18B34    18B34      38A         0
                text30                            1EDF4    1EDF4      14E         0
                text29                              3B6      3B6       E2         0
                text28                             10A2     10A2       9C         0
                text27                              498      498       E0         0
                text26                             21F2     21F2       5A         0
                text25                            1879E    1879E      396         0
                text24                            1D856    1D856      184         0
                text23                             1728     1728       80         0
                text22                            1B280    1B280      21C         0
                text21                            1AE16    1AE16      236         0
                text20                            1378C    1378C      78C         0
                text19                            1D9DA    1D9DA      17E         0
                text18                            1C9CA    1C9CA      1A4         0
                text17                            1BCD2    1BCD2      1F8         0
                text16                              106      106       E6         0
                text15                             1A9A     1A9A       78         0
                text14                             2640     2640       44         0
                text13                            15F4A    15F4A      508         0
                text12                             2DD2     2DD2       10         0
                text11                             2C32     2C32       1E         0
                text10                            1FB12    1FB12       FA         0
                text9                              1624     1624       82         0
                text8                              19A4     19A4       7C         0
                text7                              2952     2952       32         0
                text6                             1F19C    1F19C      12A         0
                text5                             16452    16452      4BC         0
                text4                              22A0     22A0       52         0
                text3                             1FDFC    1FDFC       EC         0
                text2                              1C02     1C02       6E         0
                text1                              2B8A     2B8A       22         0
                text0                               2D2      2D2       E4         0
                cinit                               BD2      BD2       BC         0
                idataBANK8                         2526     2526       47         0
                idataBANK7                         2D78     2D78       12         0

        CLASS   CONST          

        CLASS   SMALLCONST     

        CLASS   MEDIUMCONST    
                mediumconst                        DF6C     DF6C     2094         0

        CLASS   COMRAM         
                cstackCOMRAM                        501      501       51         1
                bssCOMRAM                           552      552        7         1

        CLASS   ABS1           

        CLASS   BIGRAM         
                bssBIGRAM                           C00      C00     10FC         1

        CLASS   RAM            

        CLASS   BANK5          
                cstackBANK5                         560      560       A0         1

        CLASS   BANK6          
                cstackBANK6                         600      600       FF         1
                bssBANK6                            6FF      6FF        1         1

        CLASS   BANK7          
                cstackBANK7                         7EC      7EC       12         1
                dataBANK7                           7DA      7DA       12         1
                bssBANK7                            700      700       A1         1
                nvBANK7                             7A1      7A1       39         1

        CLASS   BANK8          
                dataBANK8                           85E      85E       47         1
                bssBANK8                            800      800       5E         1
                nvBANK8                             8A5      8A5       15         1

        CLASS   BANK9          
                bssBANK9                            900      900       D0         1

        CLASS   BANK10         
                bssBANK10                           A00      A00       B0         1

        CLASS   BANK11         
                bssBANK11                           B00      B00      100         1

        CLASS   BANK12         

        CLASS   BANK13         

        CLASS   BANK14         

        CLASS   BANK15         

        CLASS   BANK16         

        CLASS   BANK17         

        CLASS   BANK18         

        CLASS   BANK19         

        CLASS   BANK20         

        CLASS   BANK21         

        CLASS   BANK22         

        CLASS   BANK23         

        CLASS   BANK24         

        CLASS   BANK25         

        CLASS   BANK26         

        CLASS   BANK27         

        CLASS   BANK28         

        CLASS   BANK29         

        CLASS   BANK30         

        CLASS   BANK31         

        CLASS   BANK32         

        CLASS   BANK33         

        CLASS   BANK34         

        CLASS   BANK35         

        CLASS   BANK36         

        CLASS   SFR            

        CLASS   BIGSFR         

        CLASS   CONFIG         
                config                           300000   300000        A         4

        CLASS   IDLOC          

        CLASS   EEDATA         

        CLASS   FARRAM         

        CLASS   HEAP           

        CLASS   STACK          



SEGMENTS        Name                           Load    Length   Top    Selector   Space  Class

                reset_vec                      000000  000004  000004         0       0  CODE    
                ivt0x8                         000008  00238E  002396         4       0  CODE    
                cstackCOMRAM                   000501  000058  000559       501       1  COMRAM  
                cstackBANK5                    000560  0000A0  000600       560       1  BANK5   
                cstackBANK6                    000600  000100  000700       600       1  BANK6   
                bssBANK7                       000700  0000FE  0007FE       700       1  BANK7   
                bssBANK8                       000800  0000BA  0008BA       800       1  BANK8   
                bssBANK9                       000900  0000D0  0009D0       900       1  BANK9   
                bssBANK10                      000A00  0000B0  000AB0       A00       1  BANK10  
                bssBANK11                      000B00  000100  000C00       B00       1  BANK11  
                bssBIGRAM                      000C00  0010FC  001CFC       C00       1  BIGRAM  
                text221                        002398  0001D5  00256D       8E6       0  CODE    
                text72                         00256E  0008FA  002E68      12B7       0  CODE    
                mediumconst                    00DF6C  002094  010000      6FB6       0  MEDIUMCO
                text37                         010000  010000  020000      8000       0  CODE    


UNUSED ADDRESS RANGES

        Name                Unused          Largest block    Delta
        BANK10           000AB0-000AFF               50
        BANK28           001CFC-001CFF                4
        BANK29           001D00-001DFF              100
        BANK30           001E00-001EFF              100
        BANK31           001F00-001FFF              100
        BANK32           002000-0020FF              100
        BANK33           002100-0021FF              100
        BANK34           002200-0022FF              100
        BANK35           002300-0023FF              100
        BANK36           002400-0024FF              100
        BANK7            0007FE-0007FF                2
        BANK8            0008BA-0008FF               46
        BANK9            0009D0-0009FF               30
        BIGRAM           000559-00055F                7
                         0007FE-0007FF                2
                         0008BA-0008FF               46
                         0009D0-0009FF               30
                         000AB0-000AFF               50
                         001CFC-0024FF              804
        BIGSFR           000000-0004FF              500
                         002500-0025FF              100
        CODE             000004-000007                4
                         002396-002397                2
                         00256D-00256D                1
                         002E68-00DF6B             B104
        COMRAM           000559-00055F                7
        CONFIG           30000A-300011                8
        CONST            000004-000007                4
                         002396-002397                2
                         00256D-00256D                1
                         002E68-00DF6B             B104
        EEDATA           380000-3803FF              400
        IDLOC            200000-20003F               40
        MEDIUMCONST      002E68-00DF6B             B104
        RAM              0007FE-0007FF                2
                         0008BA-0008FF               46
                         0009D0-0009FF               30
                         000AB0-000AFF               50
                         001CFC-0024FF              100
        SFR              000000-0004FF              100
                         002500-0025FF              100
        SMALLCONST       002E68-00DF6B              100

                                  Symbol Table

?_SDCard_debug                                 cstackCOMRAM 000508
?_SDCard_init                                  cstackBANK5  00058F
?_SDCard_read512                               cstackBANK5  0005A8
?_SDCard_write512                              cstackBANK5  0005A8
?___SDCard_command_r1                          cstackCOMRAM 00051F
?___SDCard_crc16                               cstackCOMRAM 000508
?___aldiv                                      cstackCOMRAM 000508
?___almod                                      cstackCOMRAM 000508
?___lldiv                                      cstackCOMRAM 000508
?___llmod                                      cstackCOMRAM 000508
?___lmul                                       cstackCOMRAM 000508
?___lwmod                                      cstackCOMRAM 000508
?___strtoxl                                    cstackCOMRAM 000515
?___wmul                                       cstackCOMRAM 000508
?_abs                                          cstackCOMRAM 000512
?_check_fs                                     cstackBANK5  0005ED
?_clst2sect                                    cstackCOMRAM 000514
?_cpm_disk_read                                cstackBANK6  000654
?_cpm_trsect_from_lba                          cstackBANK5  000589
?_cpm_trsect_to_lba                            cstackBANK5  000589
?_create_chain                                 cstackBANK6  00060E
?_ctoa                                         cstackCOMRAM 000514
?_dbc_1st                                      cstackCOMRAM 000508
?_dbc_2nd                                      cstackCOMRAM 000508
?_disas_op                                     cstackBANK5  000587
?_disas_ops                                    cstackBANK5  000599
?_disk_init                                    cstackBANK6  0006BB
?_dtoa                                         cstackCOMRAM 000526
?_emuz80_57q_name                              cstackCOMRAM 000508
?_emuz80_common_high_addr_mask                 cstackCOMRAM 000508
?_emuz80_common_low_addr_mask                  cstackCOMRAM 000508
?_fatdisk_debug                                cstackCOMRAM 000508
?_find_volume                                  cstackBANK5  0005FB
?_get_fat                                      cstackBANK5  0005ED
?_get_fattime                                  cstackCOMRAM 000508
?_get_ldnumber                                 cstackCOMRAM 000508
?_io_stat                                      cstackCOMRAM 000508
?_isalnum                                      cstackCOMRAM 00050E
?_isalpha                                      cstackCOMRAM 000508
?_isdigit                                      cstackCOMRAM 000508
?_islower                                      cstackCOMRAM 000508
?_isspace                                      cstackCOMRAM 000508
?_isupper                                      cstackCOMRAM 000508
?_ld_clust                                     cstackCOMRAM 00050F
?_ld_dword                                     cstackCOMRAM 000508
?_ld_word                                      cstackCOMRAM 000508
?_memcmp                                       cstackCOMRAM 000508
?_menu_select                                  cstackBANK7  0007EC
?_mon_chartoval                                cstackCOMRAM 000508
?_mon_cmd_breakpoint                           cstackBANK6  000672
?_mon_cmd_clearbreakpoint                      cstackBANK6  000672
?_mon_cmd_continue                             cstackBANK6  000672
?_mon_cmd_disassemble                          cstackBANK6  000672
?_mon_cmd_diskread                             cstackBANK6  000672
?_mon_cmd_dump                                 cstackBANK6  000672
?_mon_cmd_help                                 cstackBANK6  000672
?_mon_cmd_reset                                cstackBANK6  000672
?_mon_cmd_sdread                               cstackBANK6  000672
?_mon_cmd_set                                  cstackBANK6  000672
?_mon_cmd_status                               cstackBANK6  000672
?_mon_cmd_step                                 cstackBANK6  000672
?_mon_cmd_write                                cstackBANK6  000672
?_mon_get_hexval                               cstackCOMRAM 00050D
?_mon_get_str                                  cstackCOMRAM 000512
?_mon_parse                                    cstackBANK5  000589
?_mon_prompt                                   cstackBANK6  000688
?_mon_strtoval                                 cstackCOMRAM 000538
?_otoa                                         cstackCOMRAM 000526
?_pad                                          cstackCOMRAM 00051B
?_printf                                       cstackBANK5  000571
?_read_prec_or_width                           cstackCOMRAM 00050E
?_sprintf                                      cstackBANK5  000571
?_stoa                                         cstackCOMRAM 000514
?_strchr                                       cstackCOMRAM 000508
?_strcmp                                       cstackCOMRAM 000508
?_strlen                                       cstackCOMRAM 000508
?_strncmp                                      cstackCOMRAM 000508
?_strtoul                                      cstackCOMRAM 000532
?_toupper                                      cstackCOMRAM 00050C
?_util_stricmp                                 cstackCOMRAM 000510
?_utoa                                         cstackCOMRAM 000526
?_vfpfcnvrt                                    cstackCOMRAM 00053B
?_vfprintf                                     cstackBANK5  00056B
?_xtoa                                         cstackCOMRAM 000526
?i2___lwmod                                    cstackCOMRAM 000501
Default_ISR@c                                  cstackCOMRAM 000507
IVTBASEH                                       (abs)        00045E
IVTBASEL                                       (abs)        00045D
IVTBASEU                                       (abs)        00045F
SDCard_command@argument                        cstackCOMRAM 00052F
SDCard_command@command                         cstackCOMRAM 000537
SDCard_command@length                          cstackCOMRAM 000535
SDCard_command@response_buffer                 cstackCOMRAM 000533
SDCard_command@responsep                       cstackCOMRAM 00053C
SDCard_command@result                          cstackCOMRAM 00053A
SDCard_command@spi                             cstackCOMRAM 000538
SDCard_crc@buf                                 cstackCOMRAM 000508
SDCard_crc@count                               cstackCOMRAM 00050A
SDCard_crc@crc                                 cstackCOMRAM 000510
SDCard_crc@endp                                cstackCOMRAM 00050C
SDCard_crc@i                                   cstackCOMRAM 00050E
SDCard_crc@p                                   cstackCOMRAM 000511
SDCard_debug@newval                            cstackCOMRAM 000508
SDCard_debug@res                               cstackCOMRAM 00050A
SDCard_end_transaction@spi                     cstackCOMRAM 000519
SDCard_init@buf                                cstackBANK5  000599
SDCard_init@clock_speed                        cstackBANK5  000591
SDCard_init@i                                  cstackBANK5  000595
SDCard_init@initial_clock_speed                cstackBANK5  00058F
SDCard_init@spi                                cstackBANK5  000597
SDCard_init@timeout                            cstackBANK5  000593
SDCard_read512@addr                            cstackBANK5  0005A8
SDCard_read512@buf                             cstackBANK5  0005AE
SDCard_read512@count                           cstackBANK5  0005B0
SDCard_read512@crc                             cstackBANK5  0005C2
SDCard_read512@i                               cstackBANK5  0005B6
SDCard_read512@i_2724                          cstackBANK5  0005B8
SDCard_read512@offs                            cstackBANK5  0005AC
SDCard_read512@resp_crc                        cstackBANK5  0005BC
SDCard_read512@response                        cstackBANK5  0005C4
SDCard_read512@result                          cstackBANK5  0005BE
SDCard_read512@retry                           cstackBANK5  0005BA
SDCard_read512@spi                             cstackBANK5  0005C0
SDCard_write512@addr                           cstackBANK5  0005A8
SDCard_write512@buf                            cstackBANK5  0005AE
SDCard_write512@count                          cstackBANK5  0005B0
SDCard_write512@crc                            cstackBANK5  0005BE
SDCard_write512@i                              cstackBANK5  0005B6
SDCard_write512@i_2741                         cstackBANK5  0005B8
SDCard_write512@offs                           cstackBANK5  0005AC
SDCard_write512@response                       cstackBANK5  0005C2
SDCard_write512@result                         cstackBANK5  0005BC
SDCard_write512@retry                          cstackBANK5  0005BA
SDCard_write512@spi                            cstackBANK5  0005C0
SPI_SD_begin@ctx                               cstackCOMRAM 00050A
SPI_SD_begin@ctx_                              cstackCOMRAM 000508
SPI_SD_begin_transaction@ctx_                  cstackCOMRAM 00050C
SPI_SD_configure@bit_order                     cstackBANK5  00058D
SPI_SD_configure@clock_speed                   cstackBANK5  00058B
SPI_SD_configure@ctx_                          cstackBANK5  000589
SPI_SD_configure@data_mode                     cstackBANK5  00058E
SPI_SD_dummy_clocks@clocks                     cstackCOMRAM 000514
SPI_SD_dummy_clocks@ctx_                       cstackCOMRAM 000512
SPI_SD_dummy_clocks@dummy                      cstackCOMRAM 000518
SPI_SD_dummy_clocks@i                          cstackCOMRAM 000516
SPI_SD_end_transaction@ctx_                    cstackCOMRAM 00050C
SPI_SD_receive@buf                             cstackCOMRAM 00050A
SPI_SD_receive@count                           cstackCOMRAM 00050C
SPI_SD_receive@ctx_                            cstackCOMRAM 000508
SPI_SD_receive@i                               cstackCOMRAM 000511
SPI_SD_receive@i_2641                          cstackCOMRAM 000513
SPI_SD_receive@p                               cstackCOMRAM 000514
SPI_SD_receive@repeat                          cstackCOMRAM 000510
SPI_SD_receive_byte@ctx_                       cstackCOMRAM 000516
SPI_SD_receive_byte@dummy                      cstackCOMRAM 000518
SPI_SD_select@ctx_                             cstackCOMRAM 000508
SPI_SD_select@select                           cstackCOMRAM 00050A
SPI_SD_send@buf                                cstackCOMRAM 00050A
SPI_SD_send@count                              cstackCOMRAM 00050C
SPI_SD_send@ctx_                               cstackCOMRAM 000508
SPI_SD_send@i                                  cstackCOMRAM 00050E
SPI_SD_send@p                                  cstackCOMRAM 000510
_ANSELA                                        (abs)        000400
_ANSELA3                                       (abs)        002003
_ANSELB                                        (abs)        000408
_ANSELC                                        (abs)        000410
_ANSELD                                        (abs)        000418
_ANSELE0                                       (abs)        002100
_ANSELE1                                       (abs)        002101
_ANSELE2                                       (abs)        002102
_ANSELF                                        (abs)        000428
_CLC1IE                                        (abs)        0024F5
_CLC1IF                                        (abs)        002575
_CLCDATA                                       (abs)        0000D4
_CLCIN0PPS                                     (abs)        000261
_CLCIN2PPS                                     (abs)        000263
_CLCSELECT                                     (abs)        0000D5
_CLCnCON                                       (abs)        0000D6
_CLCnGLS0                                      (abs)        0000DC
_CLCnGLS1                                      (abs)        0000DD
_CLCnGLS2                                      (abs)        0000DE
_CLCnGLS3                                      (abs)        0000DF
_CLCnPOL                                       (abs)        0000D7
_CLCnSEL0                                      (abs)        0000D8
_CLCnSEL1                                      (abs)        0000D9
_CLCnSEL2                                      (abs)        0000DA
_CLCnSEL3                                      (abs)        0000DB
_DbcTbl                                        mediumconst  00DFB3
_Default_ISR                                   text221      002398
_FatFs                                         bssBANK7     000729
_Fsid                                          bssBANK7     000727
_G3POL                                         (abs)        0006BA
_GIE                                           (abs)        0026B7
_IVTBASE                                       (abs)        00045D
_IVTLOCK                                       (abs)        000459
_IVTLOCKbits                                   (abs)        000459
_LATA1                                         (abs)        0025F1
_LATA4                                         (abs)        0025F4
_LATA5                                         (abs)        0025F5
_LATA6                                         (abs)        0025F6
_LATB                                          (abs)        0004BF
_LATC4                                         (abs)        002604
_LATC5                                         (abs)        002605
_LATD                                          (abs)        0004C1
_LATE0                                         (abs)        002610
_LATE1                                         (abs)        002611
_LATE2                                         (abs)        002612
_LATF                                          (abs)        0004C3
_NCO1CLK                                       (abs)        000447
_NCO1EN                                        (abs)        002237
_NCO1INC                                       (abs)        000443
_NCO1OUT                                       (abs)        002235
_NCO1PFM                                       (abs)        002230
_OSCFRQ                                        (abs)        0000B1
_PORTB                                         (abs)        0004CF
_PORTF                                         (abs)        0004D3
_RA0                                           (abs)        002670
_RA1                                           (abs)        002671
_RA3PPS                                        (abs)        000204
_RA4PPS                                        (abs)        000205
_RA5                                           (abs)        002675
_RA6PPS                                        (abs)        000207
_RC0PPS                                        (abs)        000211
_RC1PPS                                        (abs)        000212
_SDCard_command                                text8        0019A4
_SDCard_crc                                    text212      0015A0
_SDCard_debug                                  text63       002C88
_SDCard_end_transaction                        text213      002AA0
_SDCard_init                                   text5        016452
_SDCard_read512                                text177      018EBE
_SDCard_write512                               text169      017F42
_SLRCONCbits                                   (abs)        000413
_SPI1BAUD                                      (abs)        000089
_SPI1CLK                                       (abs)        00008C
_SPI1CON0                                      (abs)        000084
_SPI1CON0bits                                  (abs)        000084
_SPI1CON1                                      (abs)        000085
_SPI1CON1bits                                  (abs)        000085
_SPI1CON2bits                                  (abs)        000086
_SPI1INTE                                      (abs)        00008B
_SPI1RXB                                       (abs)        000080
_SPI1RXIF                                      (abs)        002588
_SPI1SCKPPS                                    (abs)        00026A
_SPI1SDIPPS                                    (abs)        00026B
_SPI1TCNTH                                     (abs)        000083
_SPI1TCNTL                                     (abs)        000082
_SPI1TWIDTH                                    (abs)        000088
_SPI1TXB                                       (abs)        000081
_SPI_SD_begin                                  text7        002952
_SPI_SD_begin_transaction                      text211      002BCE
_SPI_SD_configure                              text6        01F19C
_SPI_SD_ctx                                    dataBANK7    0007DE
_SPI_SD_dummy_clocks                           text216      002194
_SPI_SD_end_transaction                        text214      002BF0
_SPI_SD_receive                                text210      019244
_SPI_SD_receive_byte                           text209      002BAC
_SPI_SD_select                                 text215      002D1E
_SPI_SD_send                                   text219      0011D2
_TRISA0                                        (abs)        002630
_TRISA1                                        (abs)        002631
_TRISA3                                        (abs)        002633
_TRISA4                                        (abs)        002634
_TRISA5                                        (abs)        002635
_TRISA6                                        (abs)        002636
_TRISA7                                        (abs)        002637
_TRISB                                         (abs)        0004C7
_TRISC0                                        (abs)        002640
_TRISC1                                        (abs)        002641
_TRISC2                                        (abs)        002642
_TRISC4                                        (abs)        002644
_TRISC5                                        (abs)        002645
_TRISD                                         (abs)        0004C9
_TRISE0                                        (abs)        002650
_TRISE1                                        (abs)        002651
_TRISE2                                        (abs)        002652
_TRISF                                         (abs)        0004CB
_U3BRG                                         (abs)        0002D4
_U3ON                                          (abs)        001697
_U3RXB                                         (abs)        0002C7
_U3RXEN                                        (abs)        00168C
_U3RXIE                                        (abs)        002538
_U3RXIF                                        (abs)        0025B8
_U3RXPPS                                       (abs)        000276
_U3TXB                                         (abs)        0002C9
_U3TXEN                                        (abs)        00168D
_U3TXIE                                        (abs)        002539
_U3TXIF                                        (abs)        0025B9
_WPUA0                                         (abs)        002008
_WPUA1                                         (abs)        002009
_WPUA5                                         (abs)        00200D
_WPUB                                          (abs)        000409
_WPUC5                                         (abs)        00208D
_WPUD                                          (abs)        000419
_WPUF                                          (abs)        000429
__Exit                                         text128      002E4C
__Exit@ec                                      cstackCOMRAM 000508
__HRAM                                         (abs)        000000
__H__absolute__                                __absolute__ 000000
__Habs1                                        abs1         000000
__Hbank10                                      bank10       000000
__Hbank11                                      bank11       000000
__Hbank12                                      bank12       000000
__Hbank13                                      bank13       000000
__Hbank14                                      bank14       000000
__Hbank15                                      bank15       000000
__Hbank16                                      bank16       000000
__Hbank17                                      bank17       000000
__Hbank18                                      bank18       000000
__Hbank19                                      bank19       000000
__Hbank20                                      bank20       000000
__Hbank21                                      bank21       000000
__Hbank22                                      bank22       000000
__Hbank23                                      bank23       000000
__Hbank24                                      bank24       000000
__Hbank25                                      bank25       000000
__Hbank26                                      bank26       000000
__Hbank27                                      bank27       000000
__Hbank28                                      bank28       000000
__Hbank29                                      bank29       000000
__Hbank30                                      bank30       000000
__Hbank31                                      bank31       000000
__Hbank32                                      bank32       000000
__Hbank33                                      bank33       000000
__Hbank34                                      bank34       000000
__Hbank35                                      bank35       000000
__Hbank36                                      bank36       000000
__Hbank5                                       bank5        000000
__Hbank6                                       bank6        000000
__Hbank7                                       bank7        000000
__Hbank8                                       bank8        000000
__Hbank9                                       bank9        000000
__Hbigbss                                      bigbss       000000
__Hbigdata                                     bigdata      000000
__Hbigram                                      bigram       000000
__Hbigsfr                                      bigsfr       000000
__Hbss                                         bss          000000
__HbssBANK10                                   bssBANK10    000000
__HbssBANK11                                   bssBANK11    000000
__HbssBANK6                                    bssBANK6     000000
__HbssBANK7                                    bssBANK7     000000
__HbssBANK8                                    bssBANK8     000000
__HbssBANK9                                    bssBANK9     000000
__HbssBIGRAM                                   bssBIGRAM    000000
__HbssCOMRAM                                   bssCOMRAM    000000
__Hcinit                                       cinit        000000
__Hclrtext                                     clrtext      000000
__Hcomram                                      comram       000000
__Hconfig                                      config       30000A
__Hconst                                       const        000000
__HcstackBANK5                                 cstackBANK5  000000
__HcstackBANK6                                 cstackBANK6  000000
__HcstackBANK7                                 cstackBANK7  000000
__HcstackCOMRAM                                cstackCOMRAM 000000
__Hdata                                        data         000000
__HdataBANK7                                   dataBANK7    000000
__HdataBANK8                                   dataBANK8    000000
__Heeprom_data                                 eeprom_data  000000
__Hfarbss                                      farbss       000000
__Hfardata                                     fardata      000000
__Hheap                                        heap         000000
__Hibigdata                                    ibigdata     000000
__Hidata                                       idata        000000
__HidataBANK7                                  idataBANK7   000000
__HidataBANK8                                  idataBANK8   000000
__Hidloc                                       idloc        000000
__Hifardata                                    ifardata     000000
__Hinit                                        init         000106
__Hintsave_regs                                intsave_regs 000000
__Hirdata                                      irdata       000000
__Hivt0x8                                      ivt0x8       000102
__Hmediumconst                                 mediumconst  010000
__HnvBANK7                                     nvBANK7      000000
__HnvBANK8                                     nvBANK8      000000
__HnvFARRAM                                    nvFARRAM     000000
__Hnvbit                                       nvbit        000000
__Hnvrram                                      nvrram       000000
__Hparam                                       rparam       000000
__Hpowerup                                     powerup      000000
__Hram                                         ram          000000
__Hramtop                                      ramtop       002600
__Hrbit                                        rbit         000000
__Hrbss                                        rbss         000000
__Hrdata                                       rdata        000000
__Hreset_vec                                   reset_vec    000004
__Hrparam                                      rparam       000000
__Hsfr                                         sfr          000000
__Hsmallconst                                  smallconst   000000
__Hspace_0                                     (abs)        020000
__Hspace_1                                     (abs)        001CFC
__Hspace_2                                     (abs)        000000
__Hspace_4                                     (abs)        60000A
__Hstack                                       stack        000000
__Hstruct                                      struct       000000
__Htemp                                        temp         000000
__Htext                                        text         000000
__Htext0                                       text0        000000
__Htext1                                       text1        000000
__Htext10                                      text10       000000
__Htext100                                     text100      000000
__Htext101                                     text101      000000
__Htext102                                     text102      000000
__Htext103                                     text103      000000
__Htext104                                     text104      000000
__Htext105                                     text105      000000
__Htext106                                     text106      000000
__Htext107                                     text107      000000
__Htext108                                     text108      000000
__Htext109                                     text109      000000
__Htext11                                      text11       000000
__Htext110                                     text110      000000
__Htext111                                     text111      000000
__Htext112                                     text112      000000
__Htext113                                     text113      000000
__Htext114                                     text114      000000
__Htext115                                     text115      000000
__Htext116                                     text116      000000
__Htext117                                     text117      000000
__Htext118                                     text118      000000
__Htext119                                     text119      000000
__Htext12                                      text12       000000
__Htext120                                     text120      000000
__Htext121                                     text121      000000
__Htext122                                     text122      000000
__Htext123                                     text123      000000
__Htext124                                     text124      000000
__Htext125                                     text125      000000
__Htext126                                     text126      000000
__Htext127                                     text127      000000
__Htext128                                     text128      000000
__Htext129                                     text129      000000
__Htext13                                      text13       000000
__Htext130                                     text130      000000
__Htext131                                     text131      000000
__Htext132                                     text132      000000
__Htext133                                     text133      000000
__Htext134                                     text134      000000
__Htext135                                     text135      000000
__Htext136                                     text136      000000
__Htext137                                     text137      000000
__Htext138                                     text138      000000
__Htext139                                     text139      000000
__Htext14                                      text14       000000
__Htext140                                     text140      000000
__Htext141                                     text141      000000
__Htext142                                     text142      000000
__Htext143                                     text143      000000
__Htext144                                     text144      000000
__Htext145                                     text145      000000
__Htext146                                     text146      000000
__Htext147                                     text147      000000
__Htext148                                     text148      000000
__Htext149                                     text149      000000
__Htext15                                      text15       000000
__Htext150                                     text150      000000
__Htext151                                     text151      000000
__Htext152                                     text152      000000
__Htext153                                     text153      000000
__Htext154                                     text154      000000
__Htext155                                     text155      000000
__Htext156                                     text156      000000
__Htext157                                     text157      000000
__Htext158                                     text158      000000
__Htext159                                     text159      000000
__Htext16                                      text16       000000
__Htext160                                     text160      000000
__Htext161                                     text161      000000
__Htext162                                     text162      000000
__Htext163                                     text163      000000
__Htext164                                     text164      000000
__Htext165                                     text165      000000
__Htext166                                     text166      000000
__Htext167                                     text167      000000
__Htext168                                     text168      000000
__Htext169                                     text169      000000
__Htext17                                      text17       000000
__Htext170                                     text170      000000
__Htext171                                     text171      000000
__Htext172                                     text172      000000
__Htext173                                     text173      000000
__Htext174                                     text174      000000
__Htext175                                     text175      000000
__Htext176                                     text176      000000
__Htext177                                     text177      000000
__Htext178                                     text178      000000
__Htext179                                     text179      000000
__Htext18                                      text18       000000
__Htext180                                     text180      000000
__Htext181                                     text181      000000
__Htext182                                     text182      000000
__Htext183                                     text183      000000
__Htext184                                     text184      000000
__Htext185                                     text185      000000
__Htext186                                     text186      000000
__Htext187                                     text187      000000
__Htext188                                     text188      000000
__Htext189                                     text189      000000
__Htext19                                      text19       000000
__Htext190                                     text190      000000
__Htext191                                     text191      000000
__Htext192                                     text192      000000
__Htext193                                     text193      000000
__Htext194                                     text194      000000
__Htext195                                     text195      000000
__Htext196                                     text196      000000
__Htext197                                     text197      000000
__Htext198                                     text198      000000
__Htext199                                     text199      000000
__Htext2                                       text2        000000
__Htext20                                      text20       000000
__Htext200                                     text200      000000
__Htext201                                     text201      000000
__Htext202                                     text202      000000
__Htext203                                     text203      000000
__Htext204                                     text204      000000
__Htext205                                     text205      000000
__Htext206                                     text206      000000
__Htext207                                     text207      000000
__Htext208                                     text208      000000
__Htext209                                     text209      000000
__Htext21                                      text21       000000
__Htext210                                     text210      000000
__Htext211                                     text211      000000
__Htext212                                     text212      000000
__Htext213                                     text213      000000
__Htext214                                     text214      000000
__Htext215                                     text215      000000
__Htext216                                     text216      000000
__Htext217                                     text217      000000
__Htext218                                     text218      000000
__Htext219                                     text219      000000
__Htext22                                      text22       000000
__Htext220                                     text220      000000
__Htext221                                     text221      000000
__Htext222                                     text222      000000
__Htext223                                     text223      000000
__Htext224                                     text224      000000
__Htext225                                     text225      000000
__Htext23                                      text23       000000
__Htext24                                      text24       000000
__Htext25                                      text25       000000
__Htext26                                      text26       000000
__Htext27                                      text27       000000
__Htext28                                      text28       000000
__Htext29                                      text29       000000
__Htext3                                       text3        000000
__Htext30                                      text30       000000
__Htext31                                      text31       000000
__Htext32                                      text32       000000
__Htext33                                      text33       000000
__Htext34                                      text34       000000
__Htext35                                      text35       000000
__Htext36                                      text36       000000
__Htext37                                      text37       000000
__Htext38                                      text38       000000
__Htext39                                      text39       000000
__Htext4                                       text4        000000
__Htext40                                      text40       000000
__Htext41                                      text41       000000
__Htext42                                      text42       000000
__Htext43                                      text43       000000
__Htext44                                      text44       000000
__Htext45                                      text45       000000
__Htext46                                      text46       000000
__Htext47                                      text47       000000
__Htext48                                      text48       000000
__Htext49                                      text49       000000
__Htext5                                       text5        000000
__Htext50                                      text50       000000
__Htext51                                      text51       000000
__Htext52                                      text52       000000
__Htext53                                      text53       000000
__Htext54                                      text54       000000
__Htext55                                      text55       000000
__Htext56                                      text56       000000
__Htext57                                      text57       000000
__Htext58                                      text58       000000
__Htext59                                      text59       000000
__Htext6                                       text6        000000
__Htext60                                      text60       000000
__Htext61                                      text61       000000
__Htext62                                      text62       000000
__Htext63                                      text63       000000
__Htext64                                      text64       000000
__Htext65                                      text65       000000
__Htext66                                      text66       000000
__Htext67                                      text67       000000
__Htext68                                      text68       000000
__Htext69                                      text69       000000
__Htext7                                       text7        000000
__Htext70                                      text70       000000
__Htext71                                      text71       000000
__Htext72                                      text72       000000
__Htext73                                      text73       000000
__Htext74                                      text74       000000
__Htext75                                      text75       000000
__Htext76                                      text76       000000
__Htext77                                      text77       000000
__Htext78                                      text78       000000
__Htext79                                      text79       000000
__Htext8                                       text8        000000
__Htext80                                      text80       000000
__Htext81                                      text81       000000
__Htext82                                      text82       000000
__Htext83                                      text83       000000
__Htext84                                      text84       000000
__Htext85                                      text85       000000
__Htext86                                      text86       000000
__Htext87                                      text87       000000
__Htext88                                      text88       000000
__Htext89                                      text89       000000
__Htext9                                       text9        000000
__Htext90                                      text90       000000
__Htext91                                      text91       000000
__Htext92                                      text92       000000
__Htext93                                      text93       000000
__Htext94                                      text94       000000
__Htext95                                      text95       000000
__Htext96                                      text96       000000
__Htext97                                      text97       000000
__Htext98                                      text98       000000
__Htext99                                      text99       000000
__LRAM                                         (abs)        000001
__L__absolute__                                __absolute__ 000000
__Labs1                                        abs1         000000
__Lbank10                                      bank10       000000
__Lbank11                                      bank11       000000
__Lbank12                                      bank12       000000
__Lbank13                                      bank13       000000
__Lbank14                                      bank14       000000
__Lbank15                                      bank15       000000
__Lbank16                                      bank16       000000
__Lbank17                                      bank17       000000
__Lbank18                                      bank18       000000
__Lbank19                                      bank19       000000
__Lbank20                                      bank20       000000
__Lbank21                                      bank21       000000
__Lbank22                                      bank22       000000
__Lbank23                                      bank23       000000
__Lbank24                                      bank24       000000
__Lbank25                                      bank25       000000
__Lbank26                                      bank26       000000
__Lbank27                                      bank27       000000
__Lbank28                                      bank28       000000
__Lbank29                                      bank29       000000
__Lbank30                                      bank30       000000
__Lbank31                                      bank31       000000
__Lbank32                                      bank32       000000
__Lbank33                                      bank33       000000
__Lbank34                                      bank34       000000
__Lbank35                                      bank35       000000
__Lbank36                                      bank36       000000
__Lbank5                                       bank5        000000
__Lbank6                                       bank6        000000
__Lbank7                                       bank7        000000
__Lbank8                                       bank8        000000
__Lbank9                                       bank9        000000
__Lbigbss                                      bigbss       000000
__Lbigdata                                     bigdata      000000
__Lbigram                                      bigram       000000
__Lbigsfr                                      bigsfr       000000
__Lbss                                         bss          000000
__LbssBANK10                                   bssBANK10    000000
__LbssBANK11                                   bssBANK11    000000
__LbssBANK6                                    bssBANK6     000000
__LbssBANK7                                    bssBANK7     000000
__LbssBANK8                                    bssBANK8     000000
__LbssBANK9                                    bssBANK9     000000
__LbssBIGRAM                                   bssBIGRAM    000000
__LbssCOMRAM                                   bssCOMRAM    000000
__Lcinit                                       cinit        000000
__Lclrtext                                     clrtext      000000
__Lcomram                                      comram       000000
__Lconfig                                      config       000000
__Lconst                                       const        000000
__LcstackBANK5                                 cstackBANK5  000000
__LcstackBANK6                                 cstackBANK6  000000
__LcstackBANK7                                 cstackBANK7  000000
__LcstackCOMRAM                                cstackCOMRAM 000000
__Ldata                                        data         000000
__LdataBANK7                                   dataBANK7    000000
__LdataBANK8                                   dataBANK8    000000
__Leeprom_data                                 eeprom_data  000000
__Lfarbss                                      farbss       000000
__Lfardata                                     fardata      000000
__Lheap                                        heap         000000
__Libigdata                                    ibigdata     000000
__Lidata                                       idata        000000
__LidataBANK7                                  idataBANK7   000000
__LidataBANK8                                  idataBANK8   000000
__Lidloc                                       idloc        000000
__Lifardata                                    ifardata     000000
__Linit                                        init         000102
__Lintsave_regs                                intsave_regs 000000
__Lirdata                                      irdata       000000
__Livt0x8                                      ivt0x8       000008
__Lmediumconst                                 mediumconst  00DF6C
__LnvBANK7                                     nvBANK7      000000
__LnvBANK8                                     nvBANK8      000000
__LnvFARRAM                                    nvFARRAM     000000
__Lnvbit                                       nvbit        000000
__Lnvrram                                      nvrram       000000
__Lparam                                       rparam       000000
__Lpowerup                                     powerup      000000
__Lram                                         ram          000000
__Lramtop                                      ramtop       002600
__Lrbit                                        rbit         000000
__Lrbss                                        rbss         000000
__Lrdata                                       rdata        000000
__Lreset_vec                                   reset_vec    000000
__Lrparam                                      rparam       000000
__Lsfr                                         sfr          000000
__Lsmallconst                                  smallconst   000000
__Lspace_0                                     (abs)        000000
__Lspace_1                                     (abs)        000000
__Lspace_2                                     (abs)        000000
__Lspace_4                                     (abs)        000000
__Lstack                                       stack        000000
__Lstruct                                      struct       000000
__Ltemp                                        temp         000000
__Ltext                                        text         000000
__Ltext0                                       text0        000000
__Ltext1                                       text1        000000
__Ltext10                                      text10       000000
__Ltext100                                     text100      000000
__Ltext101                                     text101      000000
__Ltext102                                     text102      000000
__Ltext103                                     text103      000000
__Ltext104                                     text104      000000
__Ltext105                                     text105      000000
__Ltext106                                     text106      000000
__Ltext107                                     text107      000000
__Ltext108                                     text108      000000
__Ltext109                                     text109      000000
__Ltext11                                      text11       000000
__Ltext110                                     text110      000000
__Ltext111                                     text111      000000
__Ltext112                                     text112      000000
__Ltext113                                     text113      000000
__Ltext114                                     text114      000000
__Ltext115                                     text115      000000
__Ltext116                                     text116      000000
__Ltext117                                     text117      000000
__Ltext118                                     text118      000000
__Ltext119                                     text119      000000
__Ltext12                                      text12       000000
__Ltext120                                     text120      000000
__Ltext121                                     text121      000000
__Ltext122                                     text122      000000
__Ltext123                                     text123      000000
__Ltext124                                     text124      000000
__Ltext125                                     text125      000000
__Ltext126                                     text126      000000
__Ltext127                                     text127      000000
__Ltext128                                     text128      000000
__Ltext129                                     text129      000000
__Ltext13                                      text13       000000
__Ltext130                                     text130      000000
__Ltext131                                     text131      000000
__Ltext132                                     text132      000000
__Ltext133                                     text133      000000
__Ltext134                                     text134      000000
__Ltext135                                     text135      000000
__Ltext136                                     text136      000000
__Ltext137                                     text137      000000
__Ltext138                                     text138      000000
__Ltext139                                     text139      000000
__Ltext14                                      text14       000000
__Ltext140                                     text140      000000
__Ltext141                                     text141      000000
__Ltext142                                     text142      000000
__Ltext143                                     text143      000000
__Ltext144                                     text144      000000
__Ltext145                                     text145      000000
__Ltext146                                     text146      000000
__Ltext147                                     text147      000000
__Ltext148                                     text148      000000
__Ltext149                                     text149      000000
__Ltext15                                      text15       000000
__Ltext150                                     text150      000000
__Ltext151                                     text151      000000
__Ltext152                                     text152      000000
__Ltext153                                     text153      000000
__Ltext154                                     text154      000000
__Ltext155                                     text155      000000
__Ltext156                                     text156      000000
__Ltext157                                     text157      000000
__Ltext158                                     text158      000000
__Ltext159                                     text159      000000
__Ltext16                                      text16       000000
__Ltext160                                     text160      000000
__Ltext161                                     text161      000000
__Ltext162                                     text162      000000
__Ltext163                                     text163      000000
__Ltext164                                     text164      000000
__Ltext165                                     text165      000000
__Ltext166                                     text166      000000
__Ltext167                                     text167      000000
__Ltext168                                     text168      000000
__Ltext169                                     text169      000000
__Ltext17                                      text17       000000
__Ltext170                                     text170      000000
__Ltext171                                     text171      000000
__Ltext172                                     text172      000000
__Ltext173                                     text173      000000
__Ltext174                                     text174      000000
__Ltext175                                     text175      000000
__Ltext176                                     text176      000000
__Ltext177                                     text177      000000
__Ltext178                                     text178      000000
__Ltext179                                     text179      000000
__Ltext18                                      text18       000000
__Ltext180                                     text180      000000
__Ltext181                                     text181      000000
__Ltext182                                     text182      000000
__Ltext183                                     text183      000000
__Ltext184                                     text184      000000
__Ltext185                                     text185      000000
__Ltext186                                     text186      000000
__Ltext187                                     text187      000000
__Ltext188                                     text188      000000
__Ltext189                                     text189      000000
__Ltext19                                      text19       000000
__Ltext190                                     text190      000000
__Ltext191                                     text191      000000
__Ltext192                                     text192      000000
__Ltext193                                     text193      000000
__Ltext194                                     text194      000000
__Ltext195                                     text195      000000
__Ltext196                                     text196      000000
__Ltext197                                     text197      000000
__Ltext198                                     text198      000000
__Ltext199                                     text199      000000
__Ltext2                                       text2        000000
__Ltext20                                      text20       000000
__Ltext200                                     text200      000000
__Ltext201                                     text201      000000
__Ltext202                                     text202      000000
__Ltext203                                     text203      000000
__Ltext204                                     text204      000000
__Ltext205                                     text205      000000
__Ltext206                                     text206      000000
__Ltext207                                     text207      000000
__Ltext208                                     text208      000000
__Ltext209                                     text209      000000
__Ltext21                                      text21       000000
__Ltext210                                     text210      000000
__Ltext211                                     text211      000000
__Ltext212                                     text212      000000
__Ltext213                                     text213      000000
__Ltext214                                     text214      000000
__Ltext215                                     text215      000000
__Ltext216                                     text216      000000
__Ltext217                                     text217      000000
__Ltext218                                     text218      000000
__Ltext219                                     text219      000000
__Ltext22                                      text22       000000
__Ltext220                                     text220      000000
__Ltext221                                     text221      000000
__Ltext222                                     text222      000000
__Ltext223                                     text223      000000
__Ltext224                                     text224      000000
__Ltext225                                     text225      000000
__Ltext23                                      text23       000000
__Ltext24                                      text24       000000
__Ltext25                                      text25       000000
__Ltext26                                      text26       000000
__Ltext27                                      text27       000000
__Ltext28                                      text28       000000
__Ltext29                                      text29       000000
__Ltext3                                       text3        000000
__Ltext30                                      text30       000000
__Ltext31                                      text31       000000
__Ltext32                                      text32       000000
__Ltext33                                      text33       000000
__Ltext34                                      text34       000000
__Ltext35                                      text35       000000
__Ltext36                                      text36       000000
__Ltext37                                      text37       000000
__Ltext38                                      text38       000000
__Ltext39                                      text39       000000
__Ltext4                                       text4        000000
__Ltext40                                      text40       000000
__Ltext41                                      text41       000000
__Ltext42                                      text42       000000
__Ltext43                                      text43       000000
__Ltext44                                      text44       000000
__Ltext45                                      text45       000000
__Ltext46                                      text46       000000
__Ltext47                                      text47       000000
__Ltext48                                      text48       000000
__Ltext49                                      text49       000000
__Ltext5                                       text5        000000
__Ltext50                                      text50       000000
__Ltext51                                      text51       000000
__Ltext52                                      text52       000000
__Ltext53                                      text53       000000
__Ltext54                                      text54       000000
__Ltext55                                      text55       000000
__Ltext56                                      text56       000000
__Ltext57                                      text57       000000
__Ltext58                                      text58       000000
__Ltext59                                      text59       000000
__Ltext6                                       text6        000000
__Ltext60                                      text60       000000
__Ltext61                                      text61       000000
__Ltext62                                      text62       000000
__Ltext63                                      text63       000000
__Ltext64                                      text64       000000
__Ltext65                                      text65       000000
__Ltext66                                      text66       000000
__Ltext67                                      text67       000000
__Ltext68                                      text68       000000
__Ltext69                                      text69       000000
__Ltext7                                       text7        000000
__Ltext70                                      text70       000000
__Ltext71                                      text71       000000
__Ltext72                                      text72       000000
__Ltext73                                      text73       000000
__Ltext74                                      text74       000000
__Ltext75                                      text75       000000
__Ltext76                                      text76       000000
__Ltext77                                      text77       000000
__Ltext78                                      text78       000000
__Ltext79                                      text79       000000
__Ltext8                                       text8        000000
__Ltext80                                      text80       000000
__Ltext81                                      text81       000000
__Ltext82                                      text82       000000
__Ltext83                                      text83       000000
__Ltext84                                      text84       000000
__Ltext85                                      text85       000000
__Ltext86                                      text86       000000
__Ltext87                                      text87       000000
__Ltext88                                      text88       000000
__Ltext89                                      text89       000000
__Ltext9                                       text9        000000
__Ltext90                                      text90       000000
__Ltext91                                      text91       000000
__Ltext92                                      text92       000000
__Ltext93                                      text93       000000
__Ltext94                                      text94       000000
__Ltext95                                      text95       000000
__Ltext96                                      text96       000000
__Ltext97                                      text97       000000
__Ltext98                                      text98       000000
__Ltext99                                      text99       000000
__S0                                           (abs)        020000
__S1                                           (abs)        001CFC
__S4                                           (abs)        000000
__S5                                           (abs)        000000
___SDCard_command_r1                           text207      000D46
___SDCard_command_r1@argument                  cstackCOMRAM 00051F
___SDCard_command_r1@buf                       cstackCOMRAM 000526
___SDCard_command_r1@command                   cstackCOMRAM 000525
___SDCard_command_r1@r1                        cstackCOMRAM 000523
___SDCard_command_r1@response                  cstackCOMRAM 00052C
___SDCard_command_r1@spi                       cstackCOMRAM 00052D
___SDCard_crc16                                text206      000A4C
___SDCard_crc16@buf                            cstackCOMRAM 00050A
___SDCard_crc16@count                          cstackCOMRAM 00050C
___SDCard_crc16@crc                            cstackCOMRAM 000508
___SDCard_crc16@endp                           cstackCOMRAM 000511
___SDCard_crc16@p                              cstackCOMRAM 000513
___SDCard_wait_response                        text208      0025FA
___SDCard_wait_response@attempts               cstackCOMRAM 000519
___SDCard_wait_response@no_response            cstackCOMRAM 00051B
___SDCard_wait_response@response               cstackCOMRAM 00051E
___SDCard_wait_response@spi                    cstackCOMRAM 00051C
___aldiv                                       text201      01F502
___aldiv@counter                               cstackCOMRAM 000510
___aldiv@dividend                              cstackCOMRAM 000508
___aldiv@divisor                               cstackCOMRAM 00050C
___aldiv@quotient                              cstackCOMRAM 000512
___aldiv@sign                                  cstackCOMRAM 000511
___almod                                       text200      01FEE8
___almod@counter                               cstackCOMRAM 000510
___almod@dividend                              cstackCOMRAM 000508
___almod@divisor                               cstackCOMRAM 00050C
___almod@sign                                  cstackCOMRAM 000511
___assert_fail                                 text124      00291E
___assert_fail@expr                            cstackBANK5  000589
___assert_fail@file                            cstackBANK5  00058B
___assert_fail@func                            cstackBANK5  00058F
___assert_fail@line                            cstackBANK5  00058D
___con_flush_buffer                            text109      001F46
___funcs_on_exit                               text127      002C50
___heap_hi                                     (abs)        000000
___heap_lo                                     (abs)        000000
___inthi_sp                                    stack        000000
___intlo_sp                                    stack        000000
___lldiv                                       text189      000FFE
___lldiv@counter                               cstackCOMRAM 000514
___lldiv@dividend                              cstackCOMRAM 000508
___lldiv@divisor                               cstackCOMRAM 00050C
___lldiv@quotient                              cstackCOMRAM 000510
___llmod                                       text188      001494
___llmod@counter                               cstackCOMRAM 000510
___llmod@dividend                              cstackCOMRAM 000508
___llmod@divisor                               cstackCOMRAM 00050C
___lmul                                        text220      001CDC
___lmul@multiplicand                           cstackCOMRAM 00050C
___lmul@multiplier                             cstackCOMRAM 000508
___lmul@product                                cstackCOMRAM 000510
___lwmod                                       text132      001FAA
___lwmod@counter                               cstackCOMRAM 00050C
___lwmod@dividend                              cstackCOMRAM 000508
___lwmod@divisor                               cstackCOMRAM 00050A
___memcpy_on_target                            text100      01EF42
___memcpy_on_target@bank                       cstackBANK5  0005B2
___memcpy_on_target@buf                        cstackBANK5  0005AE
___memcpy_on_target@dest                       cstackBANK5  0005AA
___memcpy_on_target@dma_helper_z80             mediumconst  00E67F
___memcpy_on_target@len                        cstackBANK5  0005B0
___memcpy_on_target@param_blocks               cstackBANK5  0005B9
___memcpy_on_target@params                     cstackBANK5  0005B4
___memcpy_on_target@src                        cstackBANK5  0005AC
___param_bank                                  (abs)        000000
___read_from_sram                              text105      0017A8
___read_from_sram@buf                          cstackCOMRAM 000518
___read_from_sram@len                          cstackCOMRAM 00051A
___read_from_sram@src                          cstackCOMRAM 000514
___rparam_used                                 (abs)        000001
___sp                                          stack        000000
___strtoxl                                     text71       01690E
___strtoxl@a                                   cstackCOMRAM 00052B
___strtoxl@base                                cstackCOMRAM 000519
___strtoxl@c                                   cstackCOMRAM 000531
___strtoxl@conv_done                           cstackCOMRAM 000524
___strtoxl@cp                                  cstackCOMRAM 00052F
___strtoxl@endptr                              cstackCOMRAM 000517
___strtoxl@is_signed                           cstackCOMRAM 00051B
___strtoxl@limit                               cstackCOMRAM 000525
___strtoxl@prev_a                              cstackCOMRAM 000520
___strtoxl@s                                   cstackCOMRAM 000515
___strtoxl@sign                                cstackCOMRAM 000529
___strtoxl@skip                                cstackCOMRAM 00052A
___wmul                                        text193      002B40
___wmul@multiplicand                           cstackCOMRAM 00050A
___wmul@multiplier                             cstackCOMRAM 000508
___wmul@product                                cstackCOMRAM 00050C
___write_to_sram                               text136      001828
___write_to_sram@buf                           cstackCOMRAM 000518
___write_to_sram@dest                          cstackCOMRAM 000514
___write_to_sram@len                           cstackCOMRAM 00051A
__accesstop                                    (abs)        000560
__activetblptr                                 (abs)        000003
__end_of_DbcTbl                                mediumconst  00DFBD
__end_of_Default_ISR                           text221      0023EA
__end_of_SDCard_command                        text8        001A20
__end_of_SDCard_crc                            text212      001624
__end_of_SDCard_debug                          text63       002CA2
__end_of_SDCard_end_transaction                text213      002ACA
__end_of_SDCard_init                           text5        01690E
__end_of_SDCard_read512                        text177      019244
__end_of_SDCard_write512                       text169      018374
__end_of_SPI_SD_begin                          text7        002984
__end_of_SPI_SD_begin_transaction              text211      002BF0
__end_of_SPI_SD_configure                      text6        01F2C6
__end_of_SPI_SD_dummy_clocks                   text216      0021F2
__end_of_SPI_SD_end_transaction                text214      002C12
__end_of_SPI_SD_receive                        text210      01956C
__end_of_SPI_SD_receive_byte                   text209      002BCE
__end_of_SPI_SD_select                         text215      002D36
__end_of_SPI_SD_send                           text219      001266
__end_of__Exit                                 text128      002E52
__end_of___SDCard_command_r1                   text207      000DFC
__end_of___SDCard_crc16                        text206      000B10
__end_of___SDCard_wait_response                text208      002640
__end_of___aldiv                               text201      01F60E
__end_of___almod                               text200      01FFD4
__end_of___assert_fail                         text124      002952
__end_of___con_flush_buffer                    text109      001FAA
__end_of___funcs_on_exit                       text127      002C6E
__end_of___lldiv                               text189      0010A2
__end_of___llmod                               text188      00151C
__end_of___lmul                                text220      001D46
__end_of___lwmod                               text132      00200E
__end_of___memcpy_on_target                    text100      01F070
__end_of___memcpy_on_target@dma_helper_z80     mediumconst  00E69D
__end_of___read_from_sram                      text105      001828
__end_of___strtoxl                             text71       016DA2
__end_of___wmul                                text193      002B66
__end_of___write_to_sram                       text136      0018A8
__end_of__initialization                       cinit        000C88
__end_of_abort                                 text125      002E22
__end_of_abs                                   text199      00278E
__end_of_acquire_bus                           text218      0022A0
__end_of_bank_select_callback                  text134      001728
__end_of_board_init                            text9        0016A6
__end_of_bus_master                            text122      002B40
__end_of_check_fs                              text165      019858
__end_of_clst2sect                             text149      0008B6
__end_of_con_flush_buffer                      text205      002A1A
__end_of_cpm_disk_read                         text66       01C9CA
__end_of_cpm_trsect_from_lba                   text65       01D1F6
__end_of_cpm_trsect_to_lba                     text64       01F502
__end_of_create_chain                          text146      015F4A
__end_of_create_name                           text25       018B34
__end_of_ctoa                                  text202      00064E
__end_of_dbc_1st                               text28       00113E
__end_of_dbc_2nd                               text27       000578
__end_of_dir_alloc                             text30       01EF42
__end_of_dir_clear                             text33       01EDF4
__end_of_dir_find                              text24       01D9DA
__end_of_dir_next                              text32       01879E
__end_of_dir_read                              text18       01CB6E
__end_of_dir_register                          text29       000498
__end_of_dir_sdi                               text31       018EBE
__end_of_disas_op                              text95       019DAA
__end_of_disas_ops                             text94       01CEB6
__end_of_disas_z80                             mediumconst  00E3C5
__end_of_disk_init                             text160      002396
__end_of_disk_initialize                       text175      019B1A
__end_of_disk_ioctl                            text155      000EB0
__end_of_disk_read                             text170      01E70E
__end_of_disk_status                           text174      0019A4
__end_of_disk_write                            text168      01E59E
__end_of_dma_read_from_sram                    text78       01C29E
__end_of_dma_write_to_sram                     text76       01C0B4
__end_of_dtoa                                  text195      01B280
__end_of_edit_line                             text130      017AE4
__end_of_emuz80_57q_bus_master                 text123      002876
__end_of_emuz80_57q_clear_io_event             text121      002E64
__end_of_emuz80_57q_io_event                   text120      002D1E
__end_of_emuz80_57q_name                       text159      002E36
__end_of_emuz80_57q_set_bank_pins              text140      002E68
__end_of_emuz80_57q_set_wait_pin               text111      002CBC
__end_of_emuz80_57q_setup_addrbus              text139      002A48
__end_of_emuz80_57q_start_z80                  text98       001C02
__end_of_emuz80_57q_sys_init                   text3        01FEE8
__end_of_emuz80_57q_wait_io_event              text119      002B8A
__end_of_emuz80_common_addr_l_pins             text118      002E60
__end_of_emuz80_common_data_pins               text117      002E5C
__end_of_emuz80_common_high_addr_mask          text129      002DC0
__end_of_emuz80_common_init                    text10       01FC0C
__end_of_emuz80_common_ioreq_pin               text116      002D06
__end_of_emuz80_common_low_addr_mask           text99       002E4C
__end_of_emuz80_common_rd_pin                  text115      002CEE
__end_of_emuz80_common_read_from_sram          text106      0012F4
__end_of_emuz80_common_set_busrq_pin           text114      002D78
__end_of_emuz80_common_set_data_dir            text138      002E46
__end_of_emuz80_common_set_data_pins           text113      002E3E
__end_of_emuz80_common_set_nmi_pin             text88       002E66
__end_of_emuz80_common_set_reset_pin           text84       002D4C
__end_of_emuz80_common_set_wait_pin            text112      002D62
__end_of_emuz80_common_start_z80               text97       0026C8
__end_of_emuz80_common_sys_init                text2        001C70
__end_of_emuz80_common_wait_for_programmer     text4        0022F2
__end_of_emuz80_common_write_to_sram           text137      001380
__end_of_exit                                  text126      002DAE
__end_of_f_closedir                            text34       00283E
__end_of_f_lseek                               text68       01378C
__end_of_f_mount                               text161      01FD06
__end_of_f_open                                text20       013F18
__end_of_f_opendir                             text19       01DB58
__end_of_f_read                                text67       014DBA
__end_of_f_readdir                             text16       0001EC
__end_of_f_sync                                text150      01B6B2
__end_of_f_write                               text144      012F76
__end_of_fatdisk_debug                         text62       002C88
__end_of_find_volume                           text164      01BACC
__end_of_follow_path                           text22       01B49C
__end_of_fputc                                 text203      000A4C
__end_of_fputs                                 text198      00270C
__end_of_get_fat                               text148      017F42
__end_of_get_fattime                           text158      002DD2
__end_of_get_fileinfo                          text17       01BECA
__end_of_get_ldnumber                          text163      01D394
__end_of_getch_buffered                        text131      001494
__end_of_hw_ctrl_read                          text143      002E58
__end_of_hw_ctrl_write                         text142      0011D2
__end_of_install_nmi_vector                    text89       000F5A
__end_of_install_rst_vector                    text135      0025FA
__end_of_install_trampoline                    text103      000FFE
__end_of_io_handle                             text37       010FAA
__end_of_io_init                               text36       002E0A
__end_of_io_invoke_target_cpu                  text101      01AE16
__end_of_io_invoke_target_cpu_prepare          text85       01D856
__end_of_io_invoke_target_cpu_teardown         text80       01F814
__end_of_io_stat                               text110      002E2C
__end_of_io_wait_write                         text107      017682
__end_of_isalnum                               text74       002136
__end_of_isalpha                               text186      00291E
__end_of_isdigit                               text73       020000
__end_of_islower                               text184      002A74
__end_of_isspace                               text72       0025B4
__end_of_isupper                               text185      002AA0
__end_of_ld_clust                              text23       0017A8
__end_of_ld_dword                              text173      000D46
__end_of_ld_word                               text172      0028AE
__end_of_main                                  text0        0003B6
__end_of_mem_init                              text35       01BCD2
__end_of_memcmp                                text171      00071C
__end_of_memcpy                                text145      00248A
__end_of_memset                                text154      01E2BA
__end_of_menu_select                           text13       016452
__end_of_mmu_bank_config                       text141      002806
__end_of_mmu_bank_select                       text133      01F916
__end_of_mon_assert_nmi                        text87       002C32
__end_of_mon_chartoval                         text75       01C650
__end_of_mon_cleanup                           text83       00140A
__end_of_mon_cmd_breakpoint                    text57       01E144
__end_of_mon_cmd_clearbreakpoint               text56       001A9A
__end_of_mon_cmd_continue                      text55       002E16
__end_of_mon_cmd_disassemble                   text54       01A992
__end_of_mon_cmd_diskread                      text53       017212
__end_of_mon_cmd_dump                          text52       01ABD4
__end_of_mon_cmd_help                          text46       01CD12
__end_of_mon_cmd_reset                         text51       002DF0
__end_of_mon_cmd_sdread                        text50       01C80E
__end_of_mon_cmd_set                           text49       014692
__end_of_mon_cmd_status                        text47       01A28C
__end_of_mon_cmd_step                          text48       001B8A
__end_of_mon_cmd_write                         text58       01E87A
__end_of_mon_cmds                              mediumconst  00E67F
__end_of_mon_enter                             text92       01A744
__end_of_mon_get_hexval                        text44       01DFCE
__end_of_mon_get_str                           text42       01F3E6
__end_of_mon_init                              text12       002DE2
__end_of_mon_leave                             text81       001DAE
__end_of_mon_parse                             text41       0153CE
__end_of_mon_prepare                           text91       002DFE
__end_of_mon_prompt                            text40       01E9E2
__end_of_mon_remove_space                      text45       0027CC
__end_of_mon_remove_trailing_space             text43       002344
__end_of_mon_setup                             text86       002D9C
__end_of_mon_show_registers                    text93       01A4EE
__end_of_mon_strtoval                          text69       01C482
__end_of_mon_use_zeropage                      text102      0029E8
__end_of_mount_volume                          text162      0126E6
__end_of_move_window                           text166      000982
__end_of_num_drives                            mediumconst  00DFC1
__end_of_otoa                                  text194      01D530
__end_of_pad                                   text196      000BD2
__end_of_printf                                text179      002B1A
__end_of_put_fat                               text147      015998
__end_of_putch                                 text204      002CD6
__end_of_putch_buffered                        text108      001F46
__end_of_read_debug_settings                   text61       01FA16
__end_of_read_from_sram_low_addr               text79       01DE54
__end_of_read_prec_or_width                    text192      0007EA
__end_of_reinstall_trampoline                  text82       0002D2
__end_of_release_bus                           text217      00274E
__end_of_remove_chain                          text21       01B04C
__end_of_rom                                   mediumconst  00E522
__end_of_sprintf                               text96       00243A
__end_of_st_clust                              text156      002526
__end_of_st_dword                              text153      001CDC
__end_of_st_word                               text157      002AF2
__end_of_start_z80                             text11       002C50
__end_of_stoa                                  text191      01D6CA
__end_of_strchr                                text26       00224C
__end_of_strcmp                                text15       001B12
__end_of_strcpy                                text14       002684
__end_of_strlen                                text197      0024DA
__end_of_strncmp                               text190      01F19C
__end_of_strtoul                               text70       0029B6
__end_of_sync_fs                               text152      01B8C0
__end_of_sync_window                           text167      01D058
__end_of_sys_init                              text1        002BAC
__end_of_toupper                               text183      0028E6
__end_of_trampoline                            mediumconst  00E5D7
__end_of_trampoline_work                       mediumconst  00DFBF
__end_of_try_to_invoke_monitor                 text39       01FB12
__end_of_ungetch                               text223      001EE2
__end_of_uninstall_nmi_vector                  text90       001E7C
__end_of_uninstall_trampoline                  text104      002194
__end_of_util_addrdump                         text178      01E42E
__end_of_util_hexdump                          text176      01EB46
__end_of_util_hexdump_sum                      text38       0015A0
__end_of_util_stricmp                          text60       001926
__end_of_utoa                                  text187      01ECA4
__end_of_validate                              text151      01F712
__end_of_vfpfcnvrt                             text181      011C12
__end_of_vfprintf                              text180      001E16
__end_of_write_debug_settings                  text59       01FDFC
__end_of_write_to_sram_low_addr                text77       01DCD6
__end_of_xtoa                                  text182      01A024
__end_ofi2___con_flush_buffer                  text222      002072
__end_ofi2___lwmod                             text224      0020D6
__end_ofio_invoke_target_cpu_prepare@dummy_rom mediumconst  00E6A4
__end_ofmon_cleanup@return_instruction         mediumconst  00E6A5
__end_ofmon_cmd_set@variables                  mediumconst  00DFB3
__initialization                               cinit        000BD2
__mediumconst                                  mediumconst  00DF6C
__pbssBANK10                                   bssBANK10    000A00
__pbssBANK11                                   bssBANK11    000B00
__pbssBANK6                                    bssBANK6     0006FF
__pbssBANK7                                    bssBANK7     000700
__pbssBANK8                                    bssBANK8     000800
__pbssBANK9                                    bssBANK9     000900
__pbssBIGRAM                                   bssBIGRAM    000C00
__pbssCOMRAM                                   bssCOMRAM    000552
__pcinit                                       cinit        000BD2
__pcstackBANK5                                 cstackBANK5  000560
__pcstackBANK6                                 cstackBANK6  000600
__pcstackBANK7                                 cstackBANK7  0007EC
__pcstackCOMRAM                                cstackCOMRAM 000501
__pdataBANK7                                   dataBANK7    0007DA
__pdataBANK8                                   dataBANK8    00085E
__pidataBANK7                                  idataBANK7   002D78
__pidataBANK8                                  idataBANK8   002526
__pivt0x8                                      ivt0x8       000008
__pmediumconst                                 mediumconst  00DF6C
__pnvBANK7                                     nvBANK7      0007A1
__pnvBANK8                                     nvBANK8      0008A5
__ptext0                                       text0        0002D2
__ptext1                                       text1        002B8A
__ptext10                                      text10       01FB12
__ptext100                                     text100      01EF42
__ptext101                                     text101      01ABD4
__ptext102                                     text102      0029B6
__ptext103                                     text103      000F5A
__ptext104                                     text104      002136
__ptext105                                     text105      0017A8
__ptext106                                     text106      001266
__ptext107                                     text107      017212
__ptext108                                     text108      001EE2
__ptext109                                     text109      001F46
__ptext11                                      text11       002C32
__ptext110                                     text110      002E22
__ptext111                                     text111      002CA2
__ptext112                                     text112      002D4C
__ptext113                                     text113      002E36
__ptext114                                     text114      002D62
__ptext115                                     text115      002CD6
__ptext116                                     text116      002CEE
__ptext117                                     text117      002E58
__ptext118                                     text118      002E5C
__ptext119                                     text119      002B66
__ptext12                                      text12       002DD2
__ptext120                                     text120      002D06
__ptext121                                     text121      002E60
__ptext122                                     text122      002B1A
__ptext123                                     text123      00283E
__ptext124                                     text124      00291E
__ptext125                                     text125      002E16
__ptext126                                     text126      002D9C
__ptext127                                     text127      002C50
__ptext128                                     text128      002E4C
__ptext129                                     text129      002DAE
__ptext13                                      text13       015F4A
__ptext130                                     text130      017682
__ptext131                                     text131      00140A
__ptext132                                     text132      001FAA
__ptext133                                     text133      01F814
__ptext134                                     text134      0016A6
__ptext135                                     text135      0025B4
__ptext136                                     text136      001828
__ptext137                                     text137      0012F4
__ptext138                                     text138      002E3E
__ptext139                                     text139      002A1A
__ptext14                                      text14       002640
__ptext140                                     text140      002E66
__ptext141                                     text141      0027CC
__ptext142                                     text142      00113E
__ptext143                                     text143      002E52
__ptext144                                     text144      0126E6
__ptext145                                     text145      00243A
__ptext146                                     text146      015998
__ptext147                                     text147      0153CE
__ptext148                                     text148      017AE4
__ptext149                                     text149      0007EA
__ptext15                                      text15       001A9A
__ptext150                                     text150      01B49C
__ptext151                                     text151      01F60E
__ptext152                                     text152      01B6B2
__ptext153                                     text153      001C70
__ptext154                                     text154      01E144
__ptext155                                     text155      000DFC
__ptext156                                     text156      0024DA
__ptext157                                     text157      002ACA
__ptext158                                     text158      002DC0
__ptext159                                     text159      002E2C
__ptext16                                      text16       000106
__ptext160                                     text160      002344
__ptext161                                     text161      01FC0C
__ptext162                                     text162      011C12
__ptext163                                     text163      01D1F6
__ptext164                                     text164      01B8C0
__ptext165                                     text165      01956C
__ptext166                                     text166      0008B6
__ptext167                                     text167      01CEB6
__ptext168                                     text168      01E42E
__ptext169                                     text169      017F42
__ptext17                                      text17       01BCD2
__ptext170                                     text170      01E59E
__ptext171                                     text171      00064E
__ptext172                                     text172      002876
__ptext173                                     text173      000C8E
__ptext174                                     text174      001926
__ptext175                                     text175      019858
__ptext176                                     text176      01E9E2
__ptext177                                     text177      018EBE
__ptext178                                     text178      01E2BA
__ptext179                                     text179      002AF2
__ptext18                                      text18       01C9CA
__ptext180                                     text180      001DAE
__ptext181                                     text181      010FAA
__ptext182                                     text182      019DAA
__ptext183                                     text183      0028AE
__ptext184                                     text184      002A48
__ptext185                                     text185      002A74
__ptext186                                     text186      0028E6
__ptext187                                     text187      01EB46
__ptext188                                     text188      001494
__ptext189                                     text189      000FFE
__ptext19                                      text19       01D9DA
__ptext190                                     text190      01F070
__ptext191                                     text191      01D530
__ptext192                                     text192      00071C
__ptext193                                     text193      002B40
__ptext194                                     text194      01D394
__ptext195                                     text195      01B04C
__ptext196                                     text196      000B10
__ptext197                                     text197      00248A
__ptext198                                     text198      0026C8
__ptext199                                     text199      00274E
__ptext2                                       text2        001C02
__ptext20                                      text20       01378C
__ptext200                                     text200      01FEE8
__ptext201                                     text201      01F502
__ptext202                                     text202      000578
__ptext203                                     text203      000982
__ptext204                                     text204      002CBC
__ptext205                                     text205      0029E8
__ptext206                                     text206      000A4C
__ptext207                                     text207      000D46
__ptext208                                     text208      0025FA
__ptext209                                     text209      002BAC
__ptext21                                      text21       01AE16
__ptext210                                     text210      019244
__ptext211                                     text211      002BCE
__ptext212                                     text212      0015A0
__ptext213                                     text213      002AA0
__ptext214                                     text214      002BF0
__ptext215                                     text215      002D1E
__ptext216                                     text216      002194
__ptext217                                     text217      00270C
__ptext218                                     text218      00224C
__ptext219                                     text219      0011D2
__ptext22                                      text22       01B280
__ptext220                                     text220      001CDC
__ptext221                                     text221      002398
__ptext222                                     text222      00200E
__ptext223                                     text223      001E7C
__ptext224                                     text224      002072
__ptext225                                     text225      000000
__ptext23                                      text23       001728
__ptext24                                      text24       01D856
__ptext25                                      text25       01879E
__ptext26                                      text26       0021F2
__ptext27                                      text27       000498
__ptext28                                      text28       0010A2
__ptext29                                      text29       0003B6
__ptext3                                       text3        01FDFC
__ptext30                                      text30       01EDF4
__ptext31                                      text31       018B34
__ptext32                                      text32       018374
__ptext33                                      text33       01ECA4
__ptext34                                      text34       002806
__ptext35                                      text35       01BACC
__ptext36                                      text36       002DFE
__ptext37                                      text37       010000
__ptext38                                      text38       00151C
__ptext39                                      text39       01FA16
__ptext4                                       text4        0022A0
__ptext40                                      text40       01E87A
__ptext41                                      text41       014DBA
__ptext42                                      text42       01F2C6
__ptext43                                      text43       0022F2
__ptext44                                      text44       01DE54
__ptext45                                      text45       00278E
__ptext46                                      text46       01CB6E
__ptext47                                      text47       01A024
__ptext48                                      text48       001B12
__ptext49                                      text49       013F18
__ptext5                                       text5        016452
__ptext50                                      text50       01C650
__ptext51                                      text51       002DE2
__ptext52                                      text52       01A992
__ptext53                                      text53       016DA2
__ptext54                                      text54       01A744
__ptext55                                      text55       002E0A
__ptext56                                      text56       001A20
__ptext57                                      text57       01DFCE
__ptext58                                      text58       01E70E
__ptext59                                      text59       01FD06
__ptext6                                       text6        01F19C
__ptext60                                      text60       0018A8
__ptext61                                      text61       01F916
__ptext62                                      text62       002C6E
__ptext63                                      text63       002C88
__ptext64                                      text64       01F3E6
__ptext65                                      text65       01D058
__ptext66                                      text66       01C80E
__ptext67                                      text67       014692
__ptext68                                      text68       012F76
__ptext69                                      text69       01C29E
__ptext7                                       text7        002952
__ptext70                                      text70       002984
__ptext71                                      text71       01690E
__ptext72                                      text72       00256E
__ptext73                                      text73       01FFD4
__ptext74                                      text74       0020D6
__ptext75                                      text75       01C482
__ptext76                                      text76       01BECA
__ptext77                                      text77       01DB58
__ptext78                                      text78       01C0B4
__ptext79                                      text79       01DCD6
__ptext8                                       text8        0019A4
__ptext80                                      text80       01F712
__ptext81                                      text81       001D46
__ptext82                                      text82       0001EC
__ptext83                                      text83       001380
__ptext84                                      text84       002D36
__ptext85                                      text85       01D6CA
__ptext86                                      text86       002D8A
__ptext87                                      text87       002C12
__ptext88                                      text88       002E64
__ptext89                                      text89       000EB0
__ptext9                                       text9        001624
__ptext90                                      text90       001E16
__ptext91                                      text91       002DF0
__ptext92                                      text92       01A4EE
__ptext93                                      text93       01A28C
__ptext94                                      text94       01CD12
__ptext95                                      text95       019B1A
__ptext96                                      text96       0023EA
__ptext97                                      text97       002684
__ptext98                                      text98       001B8A
__ptext99                                      text99       002E46
__ramtop                                       ramtop       002600
__smallconst                                   smallconst   000000
_abort                                         text125      002E16
_abs                                           text199      00274E
_acquire_bus                                   text218      00224C
_bank_select_callback                          text134      0016A6
_board_addr_l_pins_hook                        nvBANK7      0007B9
_board_bus_master_hook                         nvBANK8      0008B1
_board_clear_io_event_hook                     nvBANK7      0007BC
_board_data_pins_hook                          nvBANK7      0007B6
_board_high_addr_mask_hook                     nvBANK7      0007CE
_board_init                                    text9        001624
_board_io_event_hook                           nvBANK7      0007C2
_board_ioreq_pin_hook                          nvBANK7      0007AD
_board_low_addr_mask_hook                      nvBANK7      0007CB
_board_memrq_pin_hook                          nvBANK8      0008AB
_board_name_hook                               nvBANK8      0008B7
_board_rd_pin_hook                             nvBANK7      0007AA
_board_read_from_sram_hook                     nvBANK7      0007C5
_board_set_addr_l_pins_hook                    nvBANK8      0008AE
_board_set_bank_pins_hook                      nvBANK7      0007D4
_board_set_busrq_pin_hook                      nvBANK7      0007A7
_board_set_data_dir_hook                       nvBANK7      0007B0
_board_set_data_pins_hook                      nvBANK7      0007B3
_board_set_int_pin_hook                        nvBANK8      0008A5
_board_set_nmi_pin_hook                        nvBANK7      0007A4
_board_set_reset_pin_hook                      nvBANK8      0008A8
_board_set_wait_pin_hook                       nvBANK7      0007A1
_board_setup_addrbus_hook                      nvBANK7      0007D1
_board_start_z80_hook                          nvBANK7      0007D7
_board_sys_init_hook                           nvBANK8      0008B4
_board_wait_io_event_hook                      nvBANK7      0007BF
_board_write_to_sram_hook                      nvBANK7      0007C8
_bus_master                                    text122      002B1A
_check_fs                                      text165      01956C
_clst2sect                                     text149      0007EA
_con_flush_buffer                              text205      0029E8
_con_output                                    bssBANK7     000743
_con_output_buffer                             bssBANK9     000900
_con_output_buffer_head                        bssBANK7     000741
_count                                         bssBANK7     000751
_cpm_disk_read                                 text66       01C80E
_cpm_trsect_from_lba                           text65       01D058
_cpm_trsect_to_lba                             text64       01F3E6
_create_chain                                  text146      015998
_create_name                                   text25       01879E
_create_name$3605                              cstackCOMRAM 00051B
_ctoa                                          text202      000578
_ctx_                                          bssBANK7     000700
_dbc_1st                                       text28       0010A2
_dbc_2nd                                       text27       000498
_dbg_set                                       bssBANK7     000785
_dbuf                                          bssBANK8     00083A
_debug                                         bssBANK7     000791
_debug_flags                                   bssCOMRAM    000554
_debug_flags@diskio$F2785                      bssCOMRAM    000552
_dir_alloc                                     text30       01EDF4
_dir_clear                                     text33       01ECA4
_dir_find                                      text24       01D856
_dir_next                                      text32       018374
_dir_read                                      text18       01C9CA
_dir_register                                  text29       0003B6
_dir_sdi                                       text31       018B34
_disas_op                                      text95       019B1A
_disas_ops                                     text94       01CD12
_disas_z80                                     mediumconst  00DFC1
_disk_buf                                      bssBANK9     000950
_disk_init                                     text160      002344
_disk_initialize                               text175      019858
_disk_ioctl                                    text155      000DFC
_disk_read                                     text170      01E59E
_disk_stat                                     dataBANK7    0007EA
_disk_status                                   text174      001926
_disk_write                                    text168      01E42E
_dma_read_from_sram                            text78       01C0B4
_dma_write_to_sram                             text76       01BECA
_drives                                        dataBANK8    000865
_dtoa                                          text195      01B04C
_dtoa$5228                                     cstackCOMRAM 00052C
_edit_line                                     text130      017682
_emuz80_57q_bus_master                         text123      00283E
_emuz80_57q_clear_io_event                     text121      002E60
_emuz80_57q_io_event                           text120      002D06
_emuz80_57q_name                               text159      002E2C
_emuz80_57q_set_bank_pins                      text140      002E66
_emuz80_57q_set_wait_pin                       text111      002CA2
_emuz80_57q_setup_addrbus                      text139      002A1A
_emuz80_57q_start_z80                          text98       001B8A
_emuz80_57q_sys_init                           text3        01FDFC
_emuz80_57q_wait_io_event                      text119      002B66
_emuz80_common_addr_l_pins                     text118      002E5C
_emuz80_common_data_pins                       text117      002E58
_emuz80_common_high_addr_mask                  text129      002DAE
_emuz80_common_init                            text10       01FB12
_emuz80_common_ioreq_pin                       text116      002CEE
_emuz80_common_low_addr_mask                   text99       002E46
_emuz80_common_memrq_pin                       (abs)        000000
_emuz80_common_rd_pin                          text115      002CD6
_emuz80_common_read_from_sram                  text106      001266
_emuz80_common_set_addr_l_pins                 (abs)        000000
_emuz80_common_set_busrq_pin                   text114      002D62
_emuz80_common_set_data_dir                    text138      002E3E
_emuz80_common_set_data_pins                   text113      002E36
_emuz80_common_set_int_pin                     (abs)        000000
_emuz80_common_set_nmi_pin                     text88       002E64
_emuz80_common_set_reset_pin                   text84       002D36
_emuz80_common_set_wait_pin                    text112      002D4C
_emuz80_common_start_z80                       text97       002684
_emuz80_common_sys_init                        text2        001C02
_emuz80_common_wait_for_programmer             text4        0022A0
_emuz80_common_write_to_sram                   text137      0012F4
_errno                                         bssBANK7     00071F
_exit                                          text126      002D9C
_f_closedir                                    text34       002806
_f_lseek                                       text68       012F76
_f_mount                                       text161      01FC0C
_f_open                                        text20       01378C
_f_opendir                                     text19       01D9DA
_f_read                                        text67       014692
_f_readdir                                     text16       000106
_f_sync                                        text150      01B49C
_f_write                                       text144      0126E6
_f_write$4078                                  cstackBANK6  00063F
_fatdisk_debug                                 text62       002C6E
_fileinfo                                      bssBANK7     00076F
_files                                         bssBIGRAM    000C00
_find_volume                                   text164      01B8C0
_flags                                         bssCOMRAM    000558
_follow_path                                   text22       01B280
_fputc                                         text203      000982
_fputs                                         text198      0026C8
_fs                                            bssBIGRAM    0018CC
_fsdir                                         bssBANK8     000812
_funcs                                         bssBANK10    000A00
_get_fat                                       text148      017AE4
_get_fat$3124                                  cstackBANK6  000600
_get_fattime                                   text158      002DC0
_get_fileinfo                                  text17       01BCD2
_get_ldnumber                                  text163      01D1F6
_getch_buffered                                text131      00140A
_hw_ctrl_lock                                  dataBANK7    0007EB
_hw_ctrl_read                                  text143      002E52
_hw_ctrl_write                                 text142      00113E
_install_nmi_vector                            text89       000EB0
_install_rst_vector                            text135      0025B4
_install_trampoline                            text103      000F5A
_invoke_monitor                                bssBANK7     00074F
_io_handle                                     text37       010000
_io_init                                       text36       002DFE
_io_invoke_target_cpu                          text101      01ABD4
_io_invoke_target_cpu_prepare                  text85       01D6CA
_io_invoke_target_cpu_teardown                 text80       01F712
_io_stat                                       text110      002E22
_io_stat_                                      bssBANK7     000749
_io_wait_write                                 text107      017212
_io_wait_write$966                             cstackCOMRAM 00054D
_isalnum                                       text74       0020D6
_isalnum$5452                                  cstackCOMRAM 000514
_isalpha                                       text186      0028E6
_isdigit                                       text73       01FFD4
_islower                                       text184      002A48
_isspace                                       text72       00256E
_isspace$5471                                  cstackCOMRAM 00050C
_isupper                                       text185      002A74
_key_input                                     bssBANK7     000747
_key_input_buffer                              bssBANK10    000A60
_key_input_buffer_head                         bssBANK7     000745
_ld_clust                                      text23       001728
_ld_dword                                      text173      000C8E
_ld_word                                       text172      002876
_main                                          text0        0002D2
_mem_init                                      text35       01BACC
_memcmp                                        text171      00064E
_memcpy                                        text145      00243A
_memset                                        text154      01E144
_menu_select                                   text13       015F4A
_menu_select$6054                              cstackBANK7  0007F2
_mmu_bank                                      bssCOMRAM    000556
_mmu_bank_config                               text141      0027CC
_mmu_bank_config_callback                      bssBANK7     000719
_mmu_bank_select                               text133      01F814
_mmu_bank_select_callback                      bssBANK7     00071C
_mmu_mem_size                                  bssBANK7     000715
_mmu_num_banks                                 bssBANK7     000737
_mon_assert_nmi                                text87       002C12
_mon_bp_addr                                   bssBANK7     000709
_mon_bp_installed                              bssBANK7     000752
_mon_bp_saved_inst                             bssBANK7     0007A0
_mon_chartoval                                 text75       01C482
_mon_cleanup                                   text83       001380
_mon_cmd_breakpoint                            text57       01DFCE
_mon_cmd_clearbreakpoint                       text56       001A20
_mon_cmd_continue                              text55       002E0A
_mon_cmd_disassemble                           text54       01A744
_mon_cmd_disassemble$1672                      cstackBANK6  000678
_mon_cmd_diskread                              text53       016DA2
_mon_cmd_dump                                  text52       01A992
_mon_cmd_help                                  text46       01CB6E
_mon_cmd_help$6051                             cstackBANK6  000676
_mon_cmd_reset                                 text51       002DE2
_mon_cmd_sdread                                text50       01C650
_mon_cmd_set                                   text49       013F18
_mon_cmd_set$6053                              cstackBANK6  00067A
_mon_cmd_status                                text47       01A024
_mon_cmd_step                                  text48       001B12
_mon_cmd_write                                 text58       01E70E
_mon_cmds                                      mediumconst  00E5D7
_mon_cur_addr                                  bssBANK7     000711
_mon_cur_drive                                 bssBANK7     000733
_mon_cur_lba                                   bssBANK7     00070D
_mon_enter                                     text92       01A4EE
_mon_get_hexval                                text44       01DE54
_mon_get_str                                   text42       01F2C6
_mon_init                                      text12       002DD2
_mon_leave                                     text81       001D46
_mon_parse                                     text41       014DBA
_mon_parse$6050                                cstackBANK5  000596
_mon_prepare                                   text91       002DF0
_mon_prompt                                    text40       01E87A
_mon_prompt$6057                               cstackBANK6  0006BA
_mon_remove_space                              text45       00278E
_mon_remove_trailing_space                     text43       0022F2
_mon_setup                                     text86       002D8A
_mon_show_registers                            text93       01A28C
_mon_show_registers$1499                       cstackBANK5  000589
_mon_show_registers$1500                       cstackBANK5  00058B
_mon_show_registers$1501                       cstackBANK5  00058D
_mon_show_registers$1502                       cstackBANK5  00058F
_mon_show_registers$1503                       cstackBANK5  000591
_mon_show_registers$1504                       cstackBANK5  000593
_mon_show_registers$1505                       cstackBANK5  000595
_mon_show_registers$1506                       cstackBANK5  000597
_mon_step_execution                            bssBANK7     00074D
_mon_strtoval                                  text69       01C29E
_mon_use_zeropage                              text102      0029B6
_mount_volume                                  text162      011C12
_move_window                                   text166      0008B6
_nmi_vector_installed                          dataBANK7    0007E4
_nmi_vector_saved                              bssBANK7     000797
_nout                                          bssBANK7     000721
_num_files                                     bssBANK7     00072D
_otoa                                          text194      01D394
_pad                                           text196      000B10
_pic18f47q43_spi_ctx                           bssBANK8     00085A
_prec                                          bssBANK7     000725
_printf                                        text179      002AF2
_put_fat                                       text147      0153CE
_put_fat$3153                                  cstackBANK5  0005F7
_put_fat$3154                                  cstackBANK5  0005F9
_putch                                         text204      002CBC
_putch_buffered                                text108      001EE2
_read_debug_settings                           text61       01F916
_read_from_sram_low_addr                       text79       01DCD6
_read_prec_or_width                            text192      00071C
_reinstall_trampoline                          text82       0001EC
_release_bus                                   text217      00270C
_remove_chain                                  text21       01AE16
_rom                                           mediumconst  00E3C5
_sprintf                                       text96       0023EA
_st_clust                                      text156      0024DA
_st_dword                                      text153      001C70
_st_word                                       text157      002ACA
_start_lba                                     dataBANK7    0007DA
_start_z80                                     text11       002C32
_stoa                                          text191      01D530
_strchr                                        text26       0021F2
_strcmp                                        text15       001A9A
_strcpy                                        text14       002640
_strlen                                        text197      00248A
_strncmp                                       text190      01F070
_strtoul                                       text70       002984
_sync_fs                                       text152      01B6B2
_sync_window                                   text167      01CEB6
_sys_init                                      text1        002B8A
_tmp_buf                                       bssBIGRAM    001AFC
_toupper                                       text183      0028AE
_trampoline                                    mediumconst  00E522
_trampoline_destroyed                          bssBANK7     000735
_trampoline_installed                          dataBANK7    0007E6
_try_to_invoke_monitor                         text39       01FA16
_turn_on_io_led                                bssBANK7     00074B
_ungetch                                       text223      001E7C
_uninstall_nmi_vector                          text90       001E16
_uninstall_trampoline                          text104      002136
_util_addrdump                                 text178      01E2BA
_util_hexdump                                  text176      01E9E2
_util_hexdump_sum                              text38       00151C
_util_stricmp                                  text60       0018A8
_utoa                                          text187      01EB46
_validate                                      text151      01F60E
_validate$3793                                 cstackBANK5  00058D
_vfpfcnvrt                                     text181      010FAA
_vfpfcnvrt$5293                                cstackBANK5  000562
_vfprintf                                      text180      001DAE
_width                                         bssBANK7     000723
_write_debug_settings                          text59       01FD06
_write_to_sram_low_addr                        text77       01DB58
_xtoa                                          text182      019DAA
_xtoa$5262                                     cstackCOMRAM 000531
_z80_context                                   bssBANK7     000757
_zero_page_saved                               bssBANK11    000B00
abs@a                                          cstackCOMRAM 000512
acquire_bus@ctx                                cstackCOMRAM 00050A
acquire_bus@ctx_                               cstackCOMRAM 000508
bank_select_callback@from                      cstackCOMRAM 000522
bank_select_callback@installed                 bssBANK7     000731
bank_select_callback@to                        cstackCOMRAM 000524
bus_master@enable                              cstackCOMRAM 00050A
check_fs@b                                     cstackBANK5  0005FA
check_fs@fs                                    cstackBANK5  0005ED
check_fs@sect                                  cstackBANK5  0005EF
check_fs@sign                                  cstackBANK5  0005F6
check_fs@w                                     cstackBANK5  0005F8
clst2sect@clst                                 cstackCOMRAM 000516
clst2sect@fs                                   cstackCOMRAM 000514
cpm_disk_read@buf                              cstackBANK6  00065A
cpm_disk_read@drive                            cstackBANK6  000654
cpm_disk_read@filep                            cstackBANK6  000662
cpm_disk_read@fres                             cstackBANK6  000664
cpm_disk_read@lba                              cstackBANK6  000656
cpm_disk_read@n                                cstackBANK6  000667
cpm_disk_read@result                           cstackBANK6  000665
cpm_disk_read@sectors                          cstackBANK6  00065C
cpm_trsect_from_lba@drive                      cstackBANK5  000589
cpm_trsect_from_lba@lba                        cstackBANK5  00058F
cpm_trsect_from_lba@sector                     cstackBANK5  00058D
cpm_trsect_from_lba@track                      cstackBANK5  00058B
cpm_trsect_to_lba@drive                        cstackBANK5  000589
cpm_trsect_to_lba@lba                          cstackBANK5  00058F
cpm_trsect_to_lba@sector                       cstackBANK5  00058D
cpm_trsect_to_lba@track                        cstackBANK5  00058B
create_chain@clst                              cstackBANK6  000610
create_chain@cs                                cstackBANK6  000627
create_chain@fs                                cstackBANK6  000625
create_chain@ncl                               cstackBANK6  000621
create_chain@obj                               cstackBANK6  00060E
create_chain@res                               cstackBANK6  00061C
create_chain@scl                               cstackBANK6  00061D
create_name@c                                  cstackCOMRAM 000528
create_name@d                                  cstackCOMRAM 00051D
create_name@dp                                 cstackCOMRAM 000514
create_name@i                                  cstackCOMRAM 000526
create_name@ni                                 cstackCOMRAM 00051E
create_name@p                                  cstackCOMRAM 000520
create_name@path                               cstackCOMRAM 000516
create_name@sfn                                cstackCOMRAM 000524
create_name@si                                 cstackCOMRAM 000522
ctoa@c                                         cstackCOMRAM 000516
ctoa@fp                                        cstackCOMRAM 000514
ctoa@l                                         cstackCOMRAM 000518
ctoa@w                                         cstackCOMRAM 00051A
dbc_1st@c                                      cstackCOMRAM 00050A
dbc_2nd@c                                      cstackCOMRAM 00050A
dir_alloc@dp                                   cstackBANK6  000645
dir_alloc@fs                                   cstackBANK6  00064C
dir_alloc@n                                    cstackBANK6  00064E
dir_alloc@n_ent                                cstackBANK6  000647
dir_alloc@res                                  cstackBANK6  000650
dir_clear@clst                                 cstackBANK5  0005E4
dir_clear@fs                                   cstackBANK5  0005E2
dir_clear@ibuf                                 cstackBANK5  0005EA
dir_clear@n                                    cstackBANK5  0005F2
dir_clear@sect                                 cstackBANK5  0005EC
dir_clear@szb                                  cstackBANK5  0005F0
dir_find@c                                     cstackBANK6  00064B
dir_find@dp                                    cstackBANK6  000645
dir_find@fs                                    cstackBANK6  000649
dir_find@res                                   cstackBANK6  00064C
dir_next@clst                                  cstackBANK6  000641
dir_next@dp                                    cstackBANK6  00062B
dir_next@fs                                    cstackBANK6  00063F
dir_next@ofs                                   cstackBANK6  00063B
dir_next@stretch                               cstackBANK6  00062D
dir_read@attr                                  cstackBANK6  00064F
dir_read@b                                     cstackBANK6  000650
dir_read@dp                                    cstackBANK6  000645
dir_read@fs                                    cstackBANK6  00064D
dir_read@res                                   cstackBANK6  000651
dir_read@vol                                   cstackBANK6  000647
dir_register@dp                                cstackBANK6  000651
dir_register@fs                                cstackBANK6  000653
dir_register@res                               cstackBANK6  000655
dir_sdi@clst                                   cstackBANK6  000620
dir_sdi@csz                                    cstackBANK6  00061C
dir_sdi@dp                                     cstackBANK6  00060C
dir_sdi@fs                                     cstackBANK6  000624
dir_sdi@ofs                                    cstackBANK6  00060E
disas_op@buf                                   cstackBANK5  00058D
disas_op@buf_len                               cstackBANK5  00058F
disas_op@ent                                   cstackBANK5  000597
disas_op@ids                                   cstackBANK5  000587
disas_op@insts                                 cstackBANK5  000589
disas_op@len                                   cstackBANK5  00058B
disas_op@operand                               cstackBANK5  000593
disas_op@pc                                    cstackBANK5  000595
disas_op@result                                cstackBANK5  000591
disas_ops@addr                                 cstackBANK5  00059B
disas_ops@buf                                  cstackBANK6  000600
disas_ops@func                                 cstackBANK5  0005A5
disas_ops@i                                    cstackBANK6  000666
disas_ops@ids                                  cstackBANK5  000599
disas_ops@insts                                cstackBANK5  00059F
disas_ops@len                                  cstackBANK5  0005A1
disas_ops@n                                    cstackBANK6  000668
disas_ops@nops                                 cstackBANK5  0005A3
disas_ops@result                               cstackBANK6  000664
disk_initialize@buf                            cstackBANK6  000600
disk_initialize@pdrv                           cstackBANK6  000680
disk_ioctl@buff                                cstackBANK5  00058A
disk_ioctl@cmd                                 cstackBANK5  000589
disk_ioctl@pdrv                                cstackCOMRAM 00054F
disk_ioctl@res                                 cstackCOMRAM 000550
disk_read@buff                                 cstackBANK5  0005C5
disk_read@count                                cstackBANK5  0005CB
disk_read@i                                    cstackCOMRAM 000550
disk_read@pdrv                                 cstackCOMRAM 00054F
disk_read@sector                               cstackBANK5  0005C7
disk_status@pdrv                               cstackCOMRAM 00054D
disk_write@buff                                cstackBANK5  0005C3
disk_write@count                               cstackBANK5  0005C9
disk_write@i                                   cstackCOMRAM 000550
disk_write@pdrv                                cstackCOMRAM 00054F
disk_write@sector                              cstackBANK5  0005C5
dma_read_from_sram@addr                        cstackBANK5  0005E9
dma_read_from_sram@buf                         cstackBANK6  00066E
dma_read_from_sram@high_addr_mask              cstackBANK5  0005EB
dma_read_from_sram@len                         cstackBANK6  000670
dma_read_from_sram@second_half                 cstackBANK5  0005EF
dma_read_from_sram@src                         cstackBANK6  00066A
dma_write_to_sram@addr                         cstackBANK5  0005E9
dma_write_to_sram@buf                          cstackBANK6  00066E
dma_write_to_sram@dest                         cstackBANK6  00066A
dma_write_to_sram@high_addr_mask               cstackBANK5  0005EB
dma_write_to_sram@len                          cstackBANK6  000670
dma_write_to_sram@second_half                  cstackBANK5  0005EF
dtoa@d                                         cstackCOMRAM 000528
dtoa@fp                                        cstackCOMRAM 000526
dtoa@i                                         cstackCOMRAM 000532
dtoa@p                                         cstackCOMRAM 00052E
dtoa@s                                         cstackCOMRAM 000534
dtoa@w                                         cstackCOMRAM 000530
edit_line@c                                    cstackBANK5  00059B
edit_line@i                                    cstackBANK5  000593
edit_line@i_1562                               cstackBANK5  000597
edit_line@i_1564                               cstackBANK5  000591
edit_line@i_1566                               cstackBANK5  000599
edit_line@line                                 cstackBANK5  000589
edit_line@maxlen                               cstackBANK5  00058B
edit_line@pos                                  cstackBANK5  00058F
edit_line@refresh                              cstackBANK5  000595
edit_line@start                                cstackBANK5  00058D
emuz80_57q_bus_master@enable                   cstackCOMRAM 000508
emuz80_57q_set_bank_pins@addr                  cstackCOMRAM 000508
emuz80_57q_set_wait_pin@v                      cstackCOMRAM 000508
emuz80_57q_setup_addrbus@addr                  cstackCOMRAM 00050C
emuz80_57q_sys_init@retry                      bssBANK7     00072B
emuz80_common_read_from_sram@ab                cstackCOMRAM 000512
emuz80_common_read_from_sram@addr              cstackCOMRAM 000508
emuz80_common_read_from_sram@buf               cstackCOMRAM 00050A
emuz80_common_read_from_sram@i                 cstackCOMRAM 000510
emuz80_common_read_from_sram@len               cstackCOMRAM 00050C
emuz80_common_set_busrq_pin@v                  cstackCOMRAM 000508
emuz80_common_set_data_dir@v                   cstackCOMRAM 000508
emuz80_common_set_data_pins@v                  cstackCOMRAM 000508
emuz80_common_set_reset_pin@v                  cstackCOMRAM 000508
emuz80_common_set_wait_pin@v                   cstackCOMRAM 000508
emuz80_common_write_to_sram@ab                 cstackCOMRAM 000512
emuz80_common_write_to_sram@addr               cstackCOMRAM 000508
emuz80_common_write_to_sram@buf                cstackCOMRAM 00050A
emuz80_common_write_to_sram@i                  cstackCOMRAM 000510
emuz80_common_write_to_sram@len                cstackCOMRAM 00050C
end_of_initialization                          cinit        000C88
exit@code                                      cstackCOMRAM 00050A
f_closedir@dp                                  cstackBANK5  000590
f_closedir@fs                                  cstackBANK5  000592
f_closedir@res                                 cstackBANK5  000594
f_lseek@bcs                                    cstackBANK6  00064A
f_lseek@clst                                   cstackBANK6  000650
f_lseek@fp                                     cstackBANK6  00062B
f_lseek@fs                                     cstackBANK6  00064E
f_lseek@ifptr                                  cstackBANK6  000641
f_lseek@nsect                                  cstackBANK6  000645
f_lseek@ofs                                    cstackBANK6  00062D
f_lseek@res                                    cstackBANK6  000649
f_mount@cfs                                    cstackBANK6  0006B7
f_mount@fs                                     cstackBANK6  0006AF
f_mount@opt                                    cstackBANK6  0006B3
f_mount@path                                   cstackBANK6  0006B1
f_mount@res                                    cstackBANK6  0006B4
f_mount@rp                                     cstackBANK6  0006B5
f_mount@vol                                    cstackBANK6  0006B9
f_open@bcs                                     cstackBANK6  0006BC
f_open@cl                                      cstackBANK6  0006C4
f_open@clst                                    cstackBANK6  0006D0
f_open@dj                                      cstackBANK6  0006D7
f_open@fp                                      cstackBANK6  0006AF
f_open@fs                                      cstackBANK6  0006D4
f_open@mode                                    cstackBANK6  0006B3
f_open@ofs                                     cstackBANK6  0006CC
f_open@path                                    cstackBANK6  0006B1
f_open@res                                     cstackBANK6  0006D6
f_open@sc                                      cstackBANK6  0006C8
f_open@tm                                      cstackBANK6  0006C0
f_opendir@dp                                   cstackBANK6  0006AF
f_opendir@fs                                   cstackBANK6  0006B3
f_opendir@path                                 cstackBANK6  0006B1
f_opendir@res                                  cstackBANK6  0006B5
f_read@br                                      cstackBANK6  000612
f_read@btr                                     cstackBANK6  000610
f_read@buff                                    cstackBANK6  00060E
f_read@cc                                      cstackBANK6  00062D
f_read@clst                                    cstackBANK6  000625
f_read@csect                                   cstackBANK6  00062B
f_read@fp                                      cstackBANK6  00060C
f_read@fs                                      cstackBANK6  000635
f_read@rbuff                                   cstackBANK6  000629
f_read@rcnt                                    cstackBANK6  00062F
f_read@remain                                  cstackBANK6  000620
f_read@res                                     cstackBANK6  000624
f_read@sect                                    cstackBANK6  000631
f_readdir@dp                                   cstackBANK6  000652
f_readdir@fno                                  cstackBANK6  000654
f_readdir@fs                                   cstackBANK6  000656
f_readdir@res                                  cstackBANK6  000658
f_sync@dir                                     cstackBANK5  0005F4
f_sync@fp                                      cstackBANK5  0005ED
f_sync@fs                                      cstackBANK5  0005F6
f_sync@res                                     cstackBANK5  0005F3
f_sync@tm                                      cstackBANK5  0005EF
f_write@btw                                    cstackBANK6  00062F
f_write@buff                                   cstackBANK6  00062D
f_write@bw                                     cstackBANK6  000631
f_write@cc                                     cstackBANK6  000648
f_write@clst                                   cstackBANK6  00064A
f_write@csect                                  cstackBANK6  000646
f_write@fp                                     cstackBANK6  00062B
f_write@fs                                     cstackBANK6  000654
f_write@res                                    cstackBANK6  000643
f_write@sect                                   cstackBANK6  000650
f_write@wbuff                                  cstackBANK6  000644
f_write@wcnt                                   cstackBANK6  00064E
fatdisk_debug@newval                           cstackCOMRAM 000508
fatdisk_debug@res                              cstackCOMRAM 00050A
find_volume@fmt                                cstackBANK6  000616
find_volume@fs                                 cstackBANK5  0005FB
find_volume@i                                  cstackBANK6  000618
find_volume@mbr_pt                             cstackBANK6  000606
find_volume@part                               cstackBANK5  0005FD
follow_path@dp                                 cstackBANK6  00064D
follow_path@fs                                 cstackBANK6  000657
follow_path@ns                                 cstackBANK6  000659
follow_path@path                               cstackBANK6  00064F
follow_path@res                                cstackBANK6  00065A
fputc@c                                        cstackCOMRAM 00050B
fputc@fp                                       cstackCOMRAM 00050D
fputs@c                                        cstackCOMRAM 000518
fputs@fp                                       cstackCOMRAM 000516
fputs@i                                        cstackCOMRAM 000519
fputs@s                                        cstackCOMRAM 000514
get_fat@bc                                     cstackBANK6  000608
get_fat@clst                                   cstackBANK5  0005EF
get_fat@fs                                     cstackBANK6  00060A
get_fat@obj                                    cstackBANK5  0005ED
get_fat@val                                    cstackBANK6  000604
get_fat@wc                                     cstackBANK6  000602
get_fileinfo@c                                 cstackCOMRAM 00051F
get_fileinfo@di                                cstackCOMRAM 000520
get_fileinfo@dp                                cstackCOMRAM 000515
get_fileinfo@fno                               cstackCOMRAM 000517
get_fileinfo@si                                cstackCOMRAM 00051D
get_ldnumber@i                                 cstackCOMRAM 00050C
get_ldnumber@path                              cstackCOMRAM 000508
get_ldnumber@tc                                cstackCOMRAM 000510
get_ldnumber@tp                                cstackCOMRAM 000513
get_ldnumber@tt                                cstackCOMRAM 00050E
get_ldnumber@vol                               cstackCOMRAM 000511
getch_buffered@res                             cstackCOMRAM 00050E
hw_ctrl_write@val                              cstackCOMRAM 00054D
i2___con_flush_buffer                          text222      00200E
i2___lwmod                                     text224      002072
i2___lwmod@counter                             cstackCOMRAM 000505
i2___lwmod@dividend                            cstackCOMRAM 000501
i2___lwmod@divisor                             cstackCOMRAM 000503
install_nmi_vector@bank                        cstackCOMRAM 000520
install_rst_vector@bank                        cstackCOMRAM 00051C
install_trampoline@bank                        cstackCOMRAM 000520
intlevel0                                      text         000000
intlevel1                                      text         000000
intlevel2                                      text         000000
intlevel3                                      text         000000
io_handle@addr                                 cstackBANK6  0006D9
io_handle@addr_944                             cstackBANK6  0006DD
io_handle@c                                    cstackBANK6  0006E1
io_handle@disk_datap                           bssBANK7     00073D
io_handle@disk_dmah                            bssBANK7     000753
io_handle@disk_dmal                            bssBANK7     000754
io_handle@disk_drive                           bssBANK7     000756
io_handle@disk_op                              bssBANK6     0006FF
io_handle@disk_sector                          bssBANK7     00073F
io_handle@disk_track                           bssBANK7     000755
io_handle@do_bus_master                        cstackBANK6  0006E6
io_handle@filep                                cstackBANK6  0006E8
io_handle@fres                                 cstackBANK6  0006EA
io_handle@io_addr                              cstackBANK6  0006EB
io_handle@io_data                              cstackBANK6  0006EE
io_handle@io_output_chars                      bssBANK7     000739
io_handle@n                                    cstackBANK6  0006EC
io_handle@prev_output_chars                    bssBANK7     00073B
io_handle@sector                               cstackBANK6  0006E2
io_invoke_target_cpu@bank                      cstackBANK5  00059B
io_invoke_target_cpu@i                         cstackBANK5  0005A8
io_invoke_target_cpu@inparams                  cstackBANK5  000593
io_invoke_target_cpu@ninparams                 cstackBANK5  000595
io_invoke_target_cpu@noutparams                cstackBANK5  000599
io_invoke_target_cpu@outparams                 cstackBANK5  000597
io_invoke_target_cpu@result_data               cstackBANK5  0005A7
io_invoke_target_cpu_prepare@dummy_rom         mediumconst  00E69D
io_invoke_target_cpu_prepare@saved_status      cstackBANK5  0005B4
io_invoke_target_cpu_teardown@saved_status     cstackBANK5  000593
io_wait_write@io_addr                          cstackCOMRAM 000551
io_wait_write@io_data                          cstackCOMRAM 000550
io_wait_write@result_io_data                   cstackBANK5  000591
io_wait_write@wait_io_addr                     cstackCOMRAM 00054F
isa$std                                        (abs)        000001
isa$xinst                                      (abs)        000000
isalnum@c                                      cstackCOMRAM 00050E
isalpha@c                                      cstackCOMRAM 000508
isdigit@c                                      cstackCOMRAM 000508
islower@c                                      cstackCOMRAM 000508
isspace@c                                      cstackCOMRAM 000508
isupper@c                                      cstackCOMRAM 000508
ivt0x8_base                                    ivt0x8       000008
ivt0x8_undefint                                ivt0x8       000100
ld_clust@cl                                    cstackCOMRAM 000517
ld_clust@dir                                   cstackCOMRAM 000511
ld_clust@fs                                    cstackCOMRAM 00050F
ld_dword@ptr                                   cstackCOMRAM 000508
ld_dword@rv                                    cstackCOMRAM 000511
ld_word@ptr                                    cstackCOMRAM 000508
ld_word@rv                                     cstackCOMRAM 00050D
mem_init@addr                                  cstackBANK5  0005F7
mem_init@i                                     cstackBANK5  0005F5
memcmp@l                                       cstackCOMRAM 000510
memcmp@n                                       cstackCOMRAM 00050C
memcmp@r                                       cstackCOMRAM 000512
memcmp@vl                                      cstackCOMRAM 000508
memcmp@vr                                      cstackCOMRAM 00050A
memcpy@d                                       cstackCOMRAM 00050E
memcpy@d1                                      cstackCOMRAM 000508
memcpy@n                                       cstackCOMRAM 00050C
memcpy@s                                       cstackCOMRAM 000510
memcpy@s1                                      cstackCOMRAM 00050A
memcpy@tmp                                     cstackCOMRAM 000512
memset@c                                       cstackCOMRAM 00050A
memset@dest                                    cstackCOMRAM 000508
memset@k                                       cstackCOMRAM 000510
memset@n                                       cstackCOMRAM 00050C
memset@s                                       cstackCOMRAM 000512
menu_select@buf                                cstackBANK7  0007F4
menu_select@c                                  cstackBANK7  0007FD
menu_select@drive                              cstackBANK7  0007F7
menu_select@drive_letter                       cstackBANK7  0007F6
menu_select@i                                  cstackBANK7  0007FB
menu_select@selection                          cstackBANK7  0007F9
mmu_bank_config@nbanks                         cstackBANK5  000589
mmu_bank_select@bank                           cstackBANK5  000589
mmu_bank_select@first_time                     dataBANK7    0007E9
mon_chartoval@curptr                           bssBANK7     00072F
mon_chartoval@res                              cstackCOMRAM 00050E
mon_chartoval@str                              cstackCOMRAM 000510
mon_chartoval@strp                             cstackCOMRAM 000508
mon_chartoval@val                              cstackCOMRAM 00050F
mon_chartoval@valp                             cstackCOMRAM 00050A
mon_cleanup@return_instruction                 mediumconst  00E6A4
mon_cmd_breakpoint@F18396                      dataBANK7    0007E8
mon_cmd_breakpoint@args                        cstackBANK6  000674
mon_cmd_breakpoint@rst08                       cstackBANK6  000678
mon_cmd_disassemble@addr                       cstackBANK6  00067E
mon_cmd_disassemble@args                       cstackBANK6  000674
mon_cmd_disassemble@done                       cstackBANK6  00067A
mon_cmd_disassemble@i                          cstackBANK6  00067C
mon_cmd_disassemble@leftovers                  cstackBANK6  000686
mon_cmd_disassemble@len                        cstackBANK6  000682
mon_cmd_disassemble@n                          cstackBANK6  000684
mon_cmd_diskread@argc                          cstackBANK6  000672
mon_cmd_diskread@args                          cstackBANK6  000674
mon_cmd_diskread@drive                         cstackBANK6  000681
mon_cmd_diskread@i                             cstackBANK6  000678
mon_cmd_diskread@lba                           cstackBANK6  00067D
mon_cmd_diskread@len                           cstackBANK6  00067A
mon_cmd_diskread@sector                        bssBANK7     00079A
mon_cmd_diskread@track                         bssBANK7     00079C
mon_cmd_diskread@update_lba                    cstackBANK6  00067C
mon_cmd_dump@addr                              cstackBANK6  00067C
mon_cmd_dump@args                              cstackBANK6  000674
mon_cmd_dump@len                               cstackBANK6  000680
mon_cmd_dump@n                                 cstackBANK6  00067A
mon_cmd_help@argc                              cstackBANK6  000672
mon_cmd_help@args                              cstackBANK6  000674
mon_cmd_help@cmd_idx                           cstackBANK6  000678
mon_cmd_sdread@argc                            cstackBANK6  000672
mon_cmd_sdread@args                            cstackBANK6  000674
mon_cmd_sdread@count                           cstackBANK6  00067A
mon_cmd_sdread@i                               cstackBANK6  000678
mon_cmd_sdread@lba                             bssBANK7     000705
mon_cmd_set@args                               cstackBANK6  000674
mon_cmd_set@i                                  cstackBANK6  00067E
mon_cmd_set@ptr                                cstackBANK6  00067C
mon_cmd_set@variables                          mediumconst  00DF6D
mon_cmd_status@pc                              cstackBANK6  00067E
mon_cmd_status@sp                              cstackBANK6  00067C
mon_cmd_step@args                              cstackBANK6  000674
mon_cmd_write@addr                             cstackBANK6  000678
mon_cmd_write@args                             cstackBANK6  000674
mon_cmd_write@val                              cstackBANK6  00067C
mon_get_hexval@c                               cstackCOMRAM 000514
mon_get_hexval@linep                           cstackCOMRAM 00050D
mon_get_hexval@result                          cstackCOMRAM 000512
mon_get_str@c                                  cstackCOMRAM 00051B
mon_get_str@linep                              cstackCOMRAM 000512
mon_get_str@result                             cstackCOMRAM 000519
mon_get_str@tmpp                               cstackCOMRAM 000517
mon_parse@args                                 cstackBANK5  00058D
mon_parse@cmd_idx                              cstackBANK5  00059C
mon_parse@command                              cstackBANK5  00058B
mon_parse@i                                    cstackBANK5  00059E
mon_parse@last_command_idx                     dataBANK7    0007E0
mon_parse@line                                 cstackBANK5  000589
mon_parse@match_idx                            cstackBANK5  00059A
mon_parse@nmatches                             cstackBANK5  000598
mon_prompt@argc                                cstackBANK6  0006BF
mon_prompt@args                                cstackBANK6  0006C7
mon_prompt@command                             cstackBANK6  0006C3
mon_prompt@input                               cstackBANK6  0006BD
mon_prompt@line                                cstackBANK6  00068A
mon_prompt@prompt_len                          cstackBANK6  0006C5
mon_prompt@result                              cstackBANK6  0006C1
mon_remove_space@linep                         cstackCOMRAM 000508
mon_remove_trailing_space@linep                cstackCOMRAM 000508
mon_strtoval@null_str                          bssBANK7     00079E
mon_strtoval@res                               cstackCOMRAM 000541
mon_strtoval@str                               cstackCOMRAM 000538
mon_strtoval@tmpp                              cstackCOMRAM 00053F
mon_use_zeropage@bank                          cstackCOMRAM 000526
mount_volume@bsect                             cstackBANK6  00069E
mount_volume@fasize                            cstackBANK6  0006A7
mount_volume@fmt                               cstackBANK6  0006AB
mount_volume@fs                                cstackBANK6  0006AD
mount_volume@mode                              cstackBANK6  000685
mount_volume@nclst                             cstackBANK6  0006A3
mount_volume@nrsv                              cstackBANK6  000698
mount_volume@path                              cstackBANK6  000681
mount_volume@rfs                               cstackBANK6  000683
mount_volume@stat                              cstackBANK6  0006A2
mount_volume@sysect                            cstackBANK6  000694
mount_volume@szbfat                            cstackBANK6  00068E
mount_volume@tsect                             cstackBANK6  00069A
mount_volume@vol                               cstackBANK6  000692
move_window@fs                                 cstackBANK5  0005E2
move_window@res                                cstackBANK5  0005EC
move_window@sect                               cstackBANK5  0005E4
otoa@d                                         cstackCOMRAM 000528
otoa@fp                                        cstackCOMRAM 000526
otoa@i                                         cstackCOMRAM 000535
otoa@p                                         cstackCOMRAM 000530
otoa@t                                         cstackCOMRAM 000532
otoa@w                                         cstackCOMRAM 000533
pad@buf                                        cstackCOMRAM 00051D
pad@fp                                         cstackCOMRAM 00051B
pad@i                                          cstackCOMRAM 000522
pad@p                                          cstackCOMRAM 00051F
pad@w                                          cstackCOMRAM 000524
printf@ap                                      cstackCOMRAM 00054B
printf@fmt                                     cstackBANK5  000571
put_fat@bc                                     cstackBANK5  0005FD
put_fat@clst                                   cstackBANK5  0005EF
put_fat@fs                                     cstackBANK5  0005ED
put_fat@p                                      cstackBANK5  0005FB
put_fat@res                                    cstackBANK5  0005FF
put_fat@val                                    cstackBANK5  0005F3
putch@c                                        cstackCOMRAM 00050A
putch_buffered@c                               cstackCOMRAM 00050D
read_debug_settings@v                          cstackCOMRAM 00050C
read_from_sram_low_addr@addr                   cstackBANK5  0005DD
read_from_sram_low_addr@addr_gap_mask          cstackBANK5  0005D9
read_from_sram_low_addr@bank                   cstackBANK5  0005D7
read_from_sram_low_addr@buf                    cstackBANK5  0005CF
read_from_sram_low_addr@len                    cstackBANK5  0005D1
read_from_sram_low_addr@n                      cstackBANK5  0005DF
read_from_sram_low_addr@saved_io_status        cstackBANK5  0005DB
read_from_sram_low_addr@src                    cstackBANK5  0005CB
read_prec_or_width@ap                          cstackCOMRAM 000510
read_prec_or_width@c                           cstackCOMRAM 000514
read_prec_or_width@fmt                         cstackCOMRAM 00050E
read_prec_or_width@n                           cstackCOMRAM 000515
release_bus@ctx                                cstackCOMRAM 00050A
release_bus@ctx_                               cstackCOMRAM 000508
remove_chain@clst                              cstackBANK6  000610
remove_chain@fs                                cstackBANK6  000625
remove_chain@nxt                               cstackBANK6  000620
remove_chain@obj                               cstackBANK6  00060E
remove_chain@pclst                             cstackBANK6  000614
remove_chain@res                               cstackBANK6  000624
sprintf@ap                                     cstackBANK5  000585
sprintf@f                                      cstackBANK5  000579
sprintf@fmt                                    cstackBANK5  000573
sprintf@s                                      cstackBANK5  000571
st_clust@cl                                    cstackCOMRAM 000510
st_clust@dir                                   cstackCOMRAM 00050E
st_clust@fs                                    cstackCOMRAM 00050C
st_dword@ptr                                   cstackCOMRAM 000508
st_dword@val                                   cstackCOMRAM 00050A
st_word@ptr                                    cstackCOMRAM 000508
st_word@val                                    cstackCOMRAM 00050A
stackhi                                        (abs)        000000
stacklo                                        (abs)        000000
start                                          init         000102
start_initialization                           cinit        000BD2
stoa@F1169                                     dataBANK8    00085E
stoa@cp                                        cstackCOMRAM 000524
stoa@fp                                        cstackCOMRAM 000514
stoa@i                                         cstackCOMRAM 000520
stoa@l                                         cstackCOMRAM 000528
stoa@nuls                                      cstackCOMRAM 000519
stoa@p                                         cstackCOMRAM 000526
stoa@s                                         cstackCOMRAM 000516
stoa@w                                         cstackCOMRAM 000522
strchr@c                                       cstackCOMRAM 00050A
strchr@s                                       cstackCOMRAM 000508
strcmp@l                                       cstackCOMRAM 000508
strcmp@r                                       cstackCOMRAM 00050A
strcpy@d                                       cstackCOMRAM 00050E
strcpy@dest                                    cstackCOMRAM 000508
strcpy@s                                       cstackCOMRAM 00050C
strcpy@src                                     cstackCOMRAM 00050A
strlen@a                                       cstackCOMRAM 00050A
strlen@s                                       cstackCOMRAM 000508
strncmp@_l                                     cstackCOMRAM 000508
strncmp@_r                                     cstackCOMRAM 00050A
strncmp@l                                      cstackCOMRAM 00050F
strncmp@n                                      cstackCOMRAM 00050C
strncmp@r                                      cstackCOMRAM 000511
strtoul@base                                   cstackCOMRAM 000536
strtoul@endptr                                 cstackCOMRAM 000534
strtoul@s                                      cstackCOMRAM 000532
sync_fs@fs                                     cstackBANK5  0005E2
sync_fs@res                                    cstackBANK5  0005EC
sync_window@fs                                 cstackBANK5  0005CF
sync_window@res                                cstackBANK5  0005E1
toupper@c                                      cstackCOMRAM 00050C
ungetch@c                                      cstackCOMRAM 000506
util_addrdump@addr                             cstackBANK5  00058F
util_addrdump@addr_offs                        cstackBANK5  00058B
util_addrdump@buf                              cstackBANK5  0005A4
util_addrdump@chars                            cstackBANK5  000593
util_addrdump@header                           cstackBANK5  000589
util_addrdump@i                                cstackBANK5  0005A6
util_addrdump@size                             cstackBANK5  000591
util_hexdump@addr                              cstackBANK5  00058B
util_hexdump@buf                               cstackBANK5  0005A0
util_hexdump@chars                             cstackBANK5  00058F
util_hexdump@header                            cstackBANK5  000589
util_hexdump@i                                 cstackBANK5  0005A2
util_hexdump@size                              cstackBANK5  00058D
util_hexdump_sum@addr                          cstackBANK5  0005A6
util_hexdump_sum@header                        cstackBANK5  0005A4
util_hexdump_sum@i                             cstackBANK5  0005AC
util_hexdump_sum@p                             cstackBANK5  0005AA
util_hexdump_sum@size                          cstackBANK5  0005A8
util_hexdump_sum@sum                           cstackBANK5  0005AE
util_stricmp@a                                 cstackCOMRAM 000510
util_stricmp@b                                 cstackCOMRAM 000512
util_stricmp@ua                                cstackCOMRAM 000517
util_stricmp@ub                                cstackCOMRAM 000515
utoa@d                                         cstackCOMRAM 000528
utoa@fp                                        cstackCOMRAM 000526
utoa@i                                         cstackCOMRAM 000530
utoa@p                                         cstackCOMRAM 00052C
utoa@w                                         cstackCOMRAM 00052E
validate@obj                                   cstackBANK5  000589
validate@res                                   cstackBANK5  00058F
validate@rfs                                   cstackBANK5  00058B
vfpfcnvrt@ap                                   cstackCOMRAM 00053F
vfpfcnvrt@c                                    cstackBANK5  000564
vfpfcnvrt@convarg                              cstackBANK5  000565
vfpfcnvrt@cp                                   cstackBANK5  000569
vfpfcnvrt@done                                 cstackBANK5  000560
vfpfcnvrt@fmt                                  cstackCOMRAM 00053D
vfpfcnvrt@fp                                   cstackCOMRAM 00053B
vfprintf@ap                                    cstackBANK5  00056F
vfprintf@cfmt                                  cstackCOMRAM 000549
vfprintf@fmt                                   cstackBANK5  00056D
vfprintf@fp                                    cstackBANK5  00056B
write_debug_settings@v                         cstackCOMRAM 00050C
write_to_sram_low_addr@addr                    cstackBANK5  0005DD
write_to_sram_low_addr@addr_gap_mask           cstackBANK5  0005D9
write_to_sram_low_addr@bank                    cstackBANK5  0005D7
write_to_sram_low_addr@buf                     cstackBANK5  0005CF
write_to_sram_low_addr@dest                    cstackBANK5  0005CB
write_to_sram_low_addr@len                     cstackBANK5  0005D1
write_to_sram_low_addr@n                       cstackBANK5  0005DF
write_to_sram_low_addr@saved_io_status         cstackBANK5  0005DB
xtoa@c                                         cstackCOMRAM 00053A
xtoa@d                                         cstackCOMRAM 000528
xtoa@d_nonzero                                 cstackCOMRAM 000535
xtoa@fp                                        cstackCOMRAM 000526
xtoa@i                                         cstackCOMRAM 000538
xtoa@p                                         cstackCOMRAM 000533
xtoa@w                                         cstackCOMRAM 000536
xtoa@x                                         cstackCOMRAM 00052C


MODULE INFORMATION

Module		Function		Class		Link	Load	Size
C:\Program Files\Microchip\xc8\v2.41\pic\sources\c99\common\toupper.c
		_toupper       		CODE           	28AE	0000	56

C:\Program Files\Microchip\xc8\v2.41\pic\sources\c99\common\toupper.c estimated size: 56

../src/boards/../../drivers/pic18f47q43_spi.c
		_SPI_SD_send   		CODE           	11D2	0000	148
		_SPI_SD_begin  		CODE           	2952	0000	50
		_SPI_SD_select 		CODE           	2D1E	0000	24
		_SPI_SD_configure		CODE           	1F19C	0000	298
		_SPI_SD_receive_byte		CODE           	2BAC	0000	34
		_SPI_SD_receive		CODE           	19244	0000	808
		_SPI_SD_end_transaction		CODE           	2BF0	0000	34
		_SPI_SD_dummy_clocks		CODE           	2194	0000	94
		_release_bus   		CODE           	270C	0000	66
		_SPI_SD_begin_transaction		CODE           	2BCE	0000	34
		_acquire_bus   		CODE           	224C	0000	84

../src/boards/../../drivers/pic18f47q43_spi.c estimated size: 1674

C:\Program Files\Microchip\xc8\v2.41\pic\sources\c99\common\isalpha.c
		_isalpha       		CODE           	28E6	0000	56

C:\Program Files\Microchip\xc8\v2.41\pic\sources\c99\common\isalpha.c estimated size: 56

C:\Program Files\Microchip\xc8\v2.41\pic\sources\c99\common\llmod.c
		___llmod       		CODE           	1494	0000	136

C:\Program Files\Microchip\xc8\v2.41\pic\sources\c99\common\llmod.c estimated size: 136

C:\Program Files\Microchip\xc8\v2.41\pic\sources\c99\common\almod.c
		___almod       		CODE           	1FEE8	0000	236

C:\Program Files\Microchip\xc8\v2.41\pic\sources\c99\common\almod.c estimated size: 236

C:\Program Files\Microchip\xc8\v2.41\pic\sources\c99\common\Umul32.c
		___lmul        		CODE           	1CDC	0000	106

C:\Program Files\Microchip\xc8\v2.41\pic\sources\c99\common\Umul32.c estimated size: 106

../drivers/diskio.c
		_fatdisk_debug 		CODE           	2C6E	0000	26
		_get_fattime   		CODE           	2DC0	0000	18
		_disk_initialize		CODE           	19858	0000	706
		_disk_write    		CODE           	1E42E	0000	368
		_disk_status   		CODE           	1926	0000	126
		_disk_ioctl    		CODE           	0DFC	0000	180
		_disk_read     		CODE           	1E59E	0000	368

../drivers/diskio.c estimated size: 1792

C:\Program Files\Microchip\xc8\v2.41\pic\sources\c99\common\assert.c
		___assert_fail 		CODE           	291E	0000	52

C:\Program Files\Microchip\xc8\v2.41\pic\sources\c99\common\assert.c estimated size: 52

C:\Program Files\Microchip\xc8\v2.41\pic\sources\c99\common\strtoul.c
		_strtoul       		CODE           	2984	0000	50

C:\Program Files\Microchip\xc8\v2.41\pic\sources\c99\common\strtoul.c estimated size: 50

../src/boards/../../drivers/SDCard.c
		_SDCard_crc    		CODE           	15A0	0000	132
		___SDCard_crc16		CODE           	0A4C	0000	196
		_SDCard_init   		CODE           	16452	0000	1212
		_SDCard_debug  		CODE           	2C88	0000	26
		_SDCard_read512		CODE           	18EBE	0000	902
		_SDCard_command		CODE           	19A4	0000	124
		_SDCard_write512		CODE           	17F42	0000	1074
		_SDCard_end_transaction		CODE           	2AA0	0000	42
		___SDCard_wait_response		CODE           	25FA	0000	70
		___SDCard_command_r1		CODE           	0D46	0000	182

../src/boards/../../drivers/SDCard.c estimated size: 3960

../src/boards/z8s57q.c
		_emuz80_57q_name		CODE           	2E2C	0000	10
		_emuz80_57q_sys_init		CODE           	1FDFC	0000	236
		_emuz80_57q_io_event		CODE           	2D06	0000	24
		_emuz80_57q_set_wait_pin		CODE           	2CA2	0000	26
		_emuz80_57q_clear_io_event		CODE           	2E60	0000	4
		_emuz80_57q_bus_master		CODE           	283E	0000	56
		_emuz80_57q_setup_addrbus		CODE           	2A1A	0000	46
		_board_init    		CODE           	1624	0000	130
		_emuz80_57q_wait_io_event		CODE           	2B66	0000	36
		_emuz80_57q_set_bank_pins		CODE           	2E66	0000	2
		_emuz80_57q_start_z80		CODE           	1B8A	0000	120

../src/boards/z8s57q.c estimated size: 690

C:\Program Files\Microchip\xc8\v2.41\pic\sources\c99\common\__lldiv.c
		___lldiv       		CODE           	0FFE	0000	164

C:\Program Files\Microchip\xc8\v2.41\pic\sources\c99\common\__lldiv.c estimated size: 164

C:\Program Files\Microchip\xc8\v2.41\pic\sources\c99\common\__strtoxl.c
		___strtoxl     		CODE           	1690E	0000	1172

C:\Program Files\Microchip\xc8\v2.41\pic\sources\c99\common\__strtoxl.c estimated size: 1172

../src/disas.c
		_disas_op      		CODE           	19B1A	0000	656
		_disas_ops     		CODE           	1CD12	0000	420

../src/disas.c estimated size: 1076

../src/io.c
		_getch_buffered		CODE           	140A	0000	138
		_io_invoke_target_cpu_prepare		CODE           	1D6CA	0000	396
		_putch         		CODE           	2CBC	0000	26
		_cpm_trsect_from_lba		CODE           	1D058	0000	414
		___con_flush_buffer		CODE           	1F46	0000	100
		_ungetch       		CODE           	1E7C	0000	102
		_try_to_invoke_monitor		CODE           	1FA16	0000	252
		_io_init       		CODE           	2DFE	0000	12
		_putch_buffered		CODE           	1EE2	0000	100
		_io_wait_write 		CODE           	17212	0000	1136
		_io_invoke_target_cpu_teardown		CODE           	1F712	0000	258
		_io_stat       		CODE           	2E22	0000	10
		_con_flush_buffer		CODE           	29E8	0000	50
		_io_invoke_target_cpu		CODE           	1ABD4	0000	578
		_Default_ISR   		CODE           	2398	0000	82
		_cpm_trsect_to_lba		CODE           	1F3E6	0000	284
		_hw_ctrl_read  		CODE           	2E52	0000	6
		_io_handle     		CODE           	10000	0000	4010
		_hw_ctrl_write 		CODE           	113E	0000	148
		_cpm_disk_read 		CODE           	1C80E	0000	444

../src/io.c estimated size: 8546

C:\Program Files\Microchip\xc8\v2.41\pic\sources\c99\common\strlen.c
		_strlen        		CODE           	248A	0000	80

C:\Program Files\Microchip\xc8\v2.41\pic\sources\c99\common\strlen.c estimated size: 80

C:\Program Files\Microchip\xc8\v2.41\pic\sources\c99\common\nf_fputc.c
		_fputc         		CODE           	0982	0000	202

C:\Program Files\Microchip\xc8\v2.41\pic\sources\c99\common\nf_fputc.c estimated size: 202

../src/memory.c
		_dma_write_to_sram		CODE           	1BECA	0000	490
		___write_to_sram		CODE           	1828	0000	128
		___memcpy_on_target		CODE           	1EF42	0000	302
		_mmu_bank_config		CODE           	27CC	0000	58
		_mmu_bank_select		CODE           	1F814	0000	258
		___read_from_sram		CODE           	17A8	0000	128
		_mem_init      		CODE           	1BACC	0000	518
		_read_from_sram_low_addr		CODE           	1DCD6	0000	382
		_dma_read_from_sram		CODE           	1C0B4	0000	490
		_write_to_sram_low_addr		CODE           	1DB58	0000	382

../src/memory.c estimated size: 3136

C:\Program Files\Microchip\xc8\v2.41\pic\sources\c99\common\strcmp.c
		_strcmp        		CODE           	1A9A	0000	120

C:\Program Files\Microchip\xc8\v2.41\pic\sources\c99\common\strcmp.c estimated size: 120

C:\Program Files\Microchip\xc8\v2.41\pic\sources\c99\common\strchr.c
		_strchr        		CODE           	21F2	0000	90

C:\Program Files\Microchip\xc8\v2.41\pic\sources\c99\common\strchr.c estimated size: 90

C:\Program Files\Microchip\xc8\v2.41\pic\sources\c99\common\strcpy.c
		_strcpy        		CODE           	2640	0000	68

C:\Program Files\Microchip\xc8\v2.41\pic\sources\c99\common\strcpy.c estimated size: 68

C:\Program Files\Microchip\xc8\v2.41\pic\sources\c99\common\memset.c
		_memset        		CODE           	1E144	0000	374

C:\Program Files\Microchip\xc8\v2.41\pic\sources\c99\common\memset.c estimated size: 374

C:\Program Files\Microchip\xc8\v2.41\pic\sources\c99\common\isdigit.c
		_isdigit       		CODE           	1FFD4	0000	44

C:\Program Files\Microchip\xc8\v2.41\pic\sources\c99\common\isdigit.c estimated size: 44

C:\Program Files\Microchip\xc8\v2.41\pic\sources\c99\common\nf_sprintf.c
		_sprintf       		CODE           	23EA	0000	80

C:\Program Files\Microchip\xc8\v2.41\pic\sources\c99\common\nf_sprintf.c estimated size: 80

C:\Program Files\Microchip\xc8\v2.41\pic\sources\c99\common\aldiv.c
		___aldiv       		CODE           	1F502	0000	268

C:\Program Files\Microchip\xc8\v2.41\pic\sources\c99\common\aldiv.c estimated size: 268

C:\Program Files\Microchip\xc8\v2.41\pic\sources\c99\common\abs.c
		_abs           		CODE           	274E	0000	64

C:\Program Files\Microchip\xc8\v2.41\pic\sources\c99\common\abs.c estimated size: 64

C:\Program Files\Microchip\xc8\v2.41\pic\sources\c99\common\doprnt.c
		_read_prec_or_width		CODE           	071C	0000	206
		_vfpfcnvrt     		CODE           	10FAA	0000	3176
		_pad           		CODE           	0B10	0000	194
		_ctoa          		CODE           	0578	0000	214
		_dtoa          		CODE           	1B04C	0000	564
		_vfprintf      		CODE           	1DAE	0000	104
		_otoa          		CODE           	1D394	0000	412
		_stoa          		CODE           	1D530	0000	410
		_utoa          		CODE           	1EB46	0000	350
		_xtoa          		CODE           	19DAA	0000	634

C:\Program Files\Microchip\xc8\v2.41\pic\sources\c99\common\doprnt.c estimated size: 6264

../fatfs/ff.c
		_clst2sect     		CODE           	07EA	0000	204
		_find_volume   		CODE           	1B8C0	0000	524
		_dir_clear     		CODE           	1ECA4	0000	336
		_ld_dword      		CODE           	0C8E	0000	184
		_remove_chain  		CODE           	1AE16	0000	566
		_f_mount       		CODE           	1FC0C	0000	250
		_get_fat       		CODE           	17AE4	0000	1118
		_st_word       		CODE           	2ACA	0000	40
		_get_ldnumber  		CODE           	1D1F6	0000	414
		_st_clust      		CODE           	24DA	0000	76
		_create_name   		CODE           	1879E	0000	918
		_create_chain  		CODE           	15998	0000	1458
		_dbc_1st       		CODE           	10A2	0000	156
		_f_lseek       		CODE           	12F76	0000	2070
		_validate      		CODE           	1F60E	0000	260
		_check_fs      		CODE           	1956C	0000	748
		_f_sync        		CODE           	1B49C	0000	534
		_get_fileinfo  		CODE           	1BCD2	0000	504
		_dir_read      		CODE           	1C9CA	0000	420
		_st_dword      		CODE           	1C70	0000	108
		_f_write       		CODE           	126E6	0000	2192
		_dir_alloc     		CODE           	1EDF4	0000	334
		_f_opendir     		CODE           	1D9DA	0000	382
		_put_fat       		CODE           	153CE	0000	1482
		_f_readdir     		CODE           	0106	0000	230
		_sync_fs       		CODE           	1B6B2	0000	526
		_dir_next      		CODE           	18374	0000	1066
		_sync_window   		CODE           	1CEB6	0000	418
		_dir_register  		CODE           	03B6	0000	226
		_ld_word       		CODE           	2876	0000	56
		_dir_find      		CODE           	1D856	0000	388
		_f_open        		CODE           	1378C	0000	1932
		_f_read        		CODE           	14692	0000	1832
		_dir_sdi       		CODE           	18B34	0000	906
		_follow_path   		CODE           	1B280	0000	540
		_f_closedir    		CODE           	2806	0000	56
		_dbc_2nd       		CODE           	0498	0000	224
		_ld_clust      		CODE           	1728	0000	128
		_move_window   		CODE           	08B6	0000	204
		_mount_volume  		CODE           	11C12	0000	2772

../fatfs/ff.c estimated size: 26782

../drivers/utils.c
		_util_addrdump 		CODE           	1E2BA	0000	372
		_util_hexdump  		CODE           	1E9E2	0000	356
		_util_stricmp  		CODE           	18A8	0000	126
		_util_hexdump_sum		CODE           	151C	0000	132

../drivers/utils.c estimated size: 986

../src/supermez80.c
		_sys_init      		CODE           	2B8A	0000	34
		_main          		CODE           	02D2	0000	228
		_start_z80     		CODE           	2C32	0000	30
		_menu_select   		CODE           	15F4A	0000	1288
		_disk_init     		CODE           	2344	0000	82
		_bus_master    		CODE           	2B1A	0000	38

../src/supermez80.c estimated size: 1700

C:\Program Files\Microchip\xc8\v2.41\pic\sources\c99\common\abort.c
		_abort         		CODE           	2E16	0000	12

C:\Program Files\Microchip\xc8\v2.41\pic\sources\c99\common\abort.c estimated size: 12

C:\Program Files\Microchip\xc8\v2.41\pic\sources\c99\common\atexit.c
		___funcs_on_exit		CODE           	2C50	0000	30

C:\Program Files\Microchip\xc8\v2.41\pic\sources\c99\common\atexit.c estimated size: 30

C:\Program Files\Microchip\xc8\v2.41\pic\sources\c99\common\isalnum.c
		_isalnum       		CODE           	20D6	0000	96

C:\Program Files\Microchip\xc8\v2.41\pic\sources\c99\common\isalnum.c estimated size: 96

shared
		mon_cleanup@return_instruction		MEDIUMCONST    	E6A4	0000	1
		_trampoline    		MEDIUMCONST    	E522	0000	181
		_disas_z80     		MEDIUMCONST    	DFC1	0000	1028
		_num_drives    		MEDIUMCONST    	0000	0000	0
		___memcpy_on_target@dma_helper_z80		MEDIUMCONST    	E67F	0000	30
		_rom           		MEDIUMCONST    	E3C5	0000	349
		_DbcTbl        		MEDIUMCONST    	DFB3	0000	10
		i2___con_flush_buffer		CODE           	200E	0000	100
		i2___lwmod     		CODE           	2072	0000	100
		__initialization		CODE           	0BD2	0000	182
		mon_cmd_set@variables		MEDIUMCONST    	DF6D	0000	70
		_trampoline_work		MEDIUMCONST    	0000	0000	0
		_mon_cmds      		MEDIUMCONST    	E5D7	0000	168
		io_invoke_target_cpu_prepare@dummy_rom		MEDIUMCONST    	E69D	0000	7

shared estimated size: 2226

../src/monitor.c
		_mon_get_hexval		CODE           	1DE54	0000	378
		_uninstall_trampoline		CODE           	2136	0000	94
		_mon_cmd_sdread		CODE           	1C650	0000	446
		_install_trampoline		CODE           	0F5A	0000	164
		_mon_remove_trailing_space		CODE           	22F2	0000	82
		_mon_cmd_status		CODE           	1A024	0000	616
		_write_debug_settings		CODE           	1FD06	0000	246
		_mon_assert_nmi		CODE           	2C12	0000	32
		_mon_chartoval 		CODE           	1C482	0000	462
		_mon_cleanup   		CODE           	1380	0000	138
		_bank_select_callback		CODE           	16A6	0000	130
		_mon_show_registers		CODE           	1A28C	0000	610
		_uninstall_nmi_vector		CODE           	1E16	0000	102
		_mon_cmd_clearbreakpoint		CODE           	1A20	0000	122
		_mon_prompt    		CODE           	1E87A	0000	360
		_install_nmi_vector		CODE           	0EB0	0000	170
		_install_rst_vector		CODE           	25B4	0000	70
		_mon_prepare   		CODE           	2DF0	0000	14
		_edit_line     		CODE           	17682	0000	1122
		_mon_enter     		CODE           	1A4EE	0000	598
		_mon_leave     		CODE           	1D46	0000	104
		_mon_parse     		CODE           	14DBA	0000	1556
		_mon_init      		CODE           	2DD2	0000	16
		_mon_cmd_breakpoint		CODE           	1DFCE	0000	374
		_mon_strtoval  		CODE           	1C29E	0000	484
		_mon_cmd_disassemble		CODE           	1A744	0000	590
		_mon_use_zeropage		CODE           	29B6	0000	50
		_mon_get_str   		CODE           	1F2C6	0000	288
		_mon_setup     		CODE           	2D8A	0000	18
		_reinstall_trampoline		CODE           	01EC	0000	230
		_mon_cmd_set   		CODE           	13F18	0000	1914
		_mon_cmd_help  		CODE           	1CB6E	0000	420
		_mon_cmd_step  		CODE           	1B12	0000	120
		_mon_cmd_dump  		CODE           	1A992	0000	578
		_mon_cmd_diskread		CODE           	16DA2	0000	1136
		_mon_remove_space		CODE           	278E	0000	62
		_read_debug_settings		CODE           	1F916	0000	256
		_mon_cmd_write 		CODE           	1E70E	0000	364
		_mon_cmd_reset 		CODE           	2DE2	0000	14
		_mon_cmd_continue		CODE           	2E0A	0000	12

../src/monitor.c estimated size: 14542

C:\Program Files\Microchip\xc8\v2.41\pic\sources\c99\common\memcmp.c
		_memcmp        		CODE           	064E	0000	206

C:\Program Files\Microchip\xc8\v2.41\pic\sources\c99\common\memcmp.c estimated size: 206

C:\Program Files\Microchip\xc8\v2.41\pic\sources\c99\common\memcpy.c
		_memcpy        		CODE           	243A	0000	80

C:\Program Files\Microchip\xc8\v2.41\pic\sources\c99\common\memcpy.c estimated size: 80

C:\Program Files\Microchip\xc8\v2.41\pic\sources\c99\common\isupper.c
		_isupper       		CODE           	2A74	0000	44

C:\Program Files\Microchip\xc8\v2.41\pic\sources\c99\common\isupper.c estimated size: 44

../src/boards/emuz80_common.c
		_emuz80_common_rd_pin		CODE           	2CD6	0000	24
		_emuz80_common_wait_for_programmer		CODE           	22A0	0000	82
		_emuz80_common_ioreq_pin		CODE           	2CEE	0000	24
		_emuz80_common_set_data_dir		CODE           	2E3E	0000	8
		_emuz80_common_set_data_pins		CODE           	2E36	0000	8
		_emuz80_common_init		CODE           	1FB12	0000	250
		_emuz80_common_write_to_sram		CODE           	12F4	0000	140
		_emuz80_common_high_addr_mask		CODE           	2DAE	0000	18
		_emuz80_common_read_from_sram		CODE           	1266	0000	142
		_emuz80_common_low_addr_mask		CODE           	2E46	0000	6
		_emuz80_common_addr_l_pins		CODE           	2E5C	0000	4
		_emuz80_common_start_z80		CODE           	2684	0000	68
		_emuz80_common_data_pins		CODE           	2E58	0000	4
		_emuz80_common_set_wait_pin		CODE           	2D4C	0000	22
		_emuz80_common_set_nmi_pin		CODE           	2E64	0000	2
		_emuz80_common_set_reset_pin		CODE           	2D36	0000	22
		_emuz80_common_sys_init		CODE           	1C02	0000	110
		_emuz80_common_set_busrq_pin		CODE           	2D62	0000	22

../src/boards/emuz80_common.c estimated size: 956

C:\Program Files\Microchip\xc8\v2.41\pic\sources\c99\common\Umul16.c
		___wmul        		CODE           	2B40	0000	38

C:\Program Files\Microchip\xc8\v2.41\pic\sources\c99\common\Umul16.c estimated size: 38

C:\Program Files\Microchip\xc8\v2.41\pic\sources\c99\common\_Exit.c
		__Exit         		CODE           	2E4C	0000	6

C:\Program Files\Microchip\xc8\v2.41\pic\sources\c99\common\_Exit.c estimated size: 6

C:\Program Files\Microchip\xc8\v2.41\pic\sources\c99\common\nf_fputs.c
		_fputs         		CODE           	26C8	0000	68

C:\Program Files\Microchip\xc8\v2.41\pic\sources\c99\common\nf_fputs.c estimated size: 68

C:\Program Files\Microchip\xc8\v2.41\pic\sources\c99\common\isspace.c
		_isspace       		CODE           	256E	0000	70

C:\Program Files\Microchip\xc8\v2.41\pic\sources\c99\common\isspace.c estimated size: 70

C:\Program Files\Microchip\xc8\v2.41\pic\sources\c99\common\exit.c
		_exit          		CODE           	2D9C	0000	18

C:\Program Files\Microchip\xc8\v2.41\pic\sources\c99\common\exit.c estimated size: 18

C:\Program Files\Microchip\xc8\v2.41\pic\sources\c99\common\islower.c
		_islower       		CODE           	2A48	0000	44

C:\Program Files\Microchip\xc8\v2.41\pic\sources\c99\common\islower.c estimated size: 44

C:\Program Files\Microchip\xc8\v2.41\pic\sources\c99\common\strncmp.c
		_strncmp       		CODE           	1F070	0000	300

C:\Program Files\Microchip\xc8\v2.41\pic\sources\c99\common\strncmp.c estimated size: 300

C:\Program Files\Microchip\xc8\v2.41\pic\sources\c99\common\printf.c
		_printf        		CODE           	2AF2	0000	40

C:\Program Files\Microchip\xc8\v2.41\pic\sources\c99\common\printf.c estimated size: 40

C:\Program Files\Microchip\xc8\v2.41\pic\sources\c99\common\lwmod.c
		___lwmod       		CODE           	1FAA	0000	100

C:\Program Files\Microchip\xc8\v2.41\pic\sources\c99\common\lwmod.c estimated size: 100

